00001                       ;--------------------------------------------------------
00002                       ; File Created by SDCC : open source ANSI-C Compiler modified for HYCON CPU
00003                       ; Version 3.9.3 #4ad52972e (MSVC)
00004                       ;--------------------------------------------------------
00005                       ; Port for HYCON CPU
00006                       ;--------------------------------------------------------
00007                       ;	;CCFROM:"D:\NZSE20A_project\NZSE20A_Soft_proj\HY17P52_LCD_soft"
00008                       ;;	.file	".\ADC_LCD.c"
00009                       	.module ADC_LCD
00010                       	;.list	p=HY17P52
00011                       	;--cdb--T:FADC_LCD$_MCUSTATUS[({0}S:S$_byte$0$0({1}SC:U),Z,0,0)({0}S:S$b_ADCdone$0$0({1}SB0$1:U),Z,0,0)]
00012                       	;--cdb--T:FADC_LCD$__00000000[({0}S:S$b_ADCdone$0$0({1}SB0$1:U),Z,0,0)]
00013                       	;--cdb--T:FADC_LCD$_adc_works_[({0}S:S$save_mode$0$0({1}SB0$1:U),Z,0,0)({0}S:S$unit_setMode$0$0({1}SB1$1:U),Z,0,0)({1}S:S$plus_uint$0$0({1}SC:U),Z,0,0)({2}S:S$unitChoose$0$0({1}SC:U),Z,0,0)({3}S:S$testMode$0$0({1}SB0$1:U),Z,0,0)({3}S:S$zeroPoint_Mode$0$0({1}SB1$1:U),Z,0,0)({3}S:S$error_mod$0$0({1}SB2$1:U),Z,0,0)({4}S:S$key_flag$0$0({1}SC:U),Z,0,0)({5}S:S$resetZeroDisplay$0$0({1}SC:U),Z,0,0)({6}S:S$quitCurrentMode$0$0({1}SB0$1:U),Z,0,0)({6}S:S$LVD_2V4_flag$0$0({1}SB1$1:U),Z,0,0)({6}S:S$LVD_3V_flag$0$0({1}SB2$1:U),Z,0,0)({6}S:S$plus_revise_flag$0$0({1}SB3$1:U),Z,0,0)({6}S:S$minus_revise_flag$0$0({1}SB4$1:U),Z,0,0)({6}S:S$Presskey_flag$0$0({1}SB5$1:U),Z,0,0)({6}S:S$Pressure_sign$0$0({1}SB6$1:U),Z,0,0)({7}S:S$eepromRead_PositiveDeltaLow_bit1$0$0({1}SC:U),Z,0,0)({8}S:S$eepromRead_PositiveDeltaLow_bit2$0$0({1}SC:U),Z,0,0)({9}S:S$eepromRead_NegativeDeltaLow_bit1$0$0({1}SC:U),Z,0,0)({10}S:S$eepromRead_NegativeDeltaLow_bit2$0$0({1}SC:U),Z,0,0)({11}S:S$eepromRead_UnithHigh_bit$0$0({1}SC:U),Z,0,0)({12}S:S$eepromRead_UnitLow_bit$0$0({1}SC:U),Z,0,0)({13}S:S$reload_ADCInterrupt$0$0({1}SB0$1:U),Z,0,0)({14}S:S$delayTimes_5$0$0({2}SI:U),Z,0,0)({16}S:S$delayTimes_3$0$0({2}SI:U),Z,0,0)({18}S:S$m_offset_value$0$0({2}SI:S),Z,0,0)({20}S:S$p_offset_value$0$0({2}SI:S),Z,0,0)]
00014                       	;--cdb--S:G$SetupUnitAndZeroPoint_Mode$0$0({2}DF,SV:S),C,0,0
00015                       	;--cdb--F:ADC_LCD:G$SetupUnitAndZeroPoint_Mode$0$0({2}DF,SV:S),C,0,0,0,0,0
00016                       	;--cdb--S:G$NegativePressureWorks_Mode$0$0({2}DF,SV:S),C,0,0
00017                       	;--cdb--F:ADC_LCD:G$NegativePressureWorks_Mode$0$0({2}DF,SV:S),C,0,0,0,0,0
00018                       	;--cdb--S:G$PositivePressureWorks_Mode$0$0({2}DF,SV:S),C,0,0
00019                       	;--cdb--F:ADC_LCD:G$PositivePressureWorks_Mode$0$0({2}DF,SV:S),C,0,0,0,0,0
00020                       	;--cdb--S:G$SetupUnit_Mode$0$0({2}DF,SV:S),C,0,0
00021                       	;--cdb--F:ADC_LCD:G$SetupUnit_Mode$0$0({2}DF,SV:S),C,0,0,0,0,0
00022                       	;--cdb--S:G$SetupZeroPoint_Mode$0$0({2}DF,SV:S),C,0,0
00023                       	;--cdb--F:ADC_LCD:G$SetupZeroPoint_Mode$0$0({2}DF,SV:S),C,0,0,0,0,0
00024                       	;--cdb--S:G$LowVoltageDisplay$0$0({2}DF,SV:S),C,0,0
00025                       	;--cdb--F:ADC_LCD:G$LowVoltageDisplay$0$0({2}DF,SV:S),C,0,0,0,0,0
00026                       	;--cdb--S:G$LowVoltageDetect_2V4$0$0({2}DF,SC:U),C,0,0
00027                       	;--cdb--F:ADC_LCD:G$LowVoltageDetect_2V4$0$0({2}DF,SC:U),C,0,0,0,0,0
00028                       	;--cdb--S:G$LowVoltageDetect_3V$0$0({2}DF,SC:U),C,0,0
00029                       	;--cdb--F:ADC_LCD:G$LowVoltageDetect_3V$0$0({2}DF,SC:U),C,0,0,0,0,0
00030                       	;--cdb--S:G$UnitConverter$0$0({2}DF,SL:SL),C,0,0
00031                       	;--cdb--F:ADC_LCD:G$UnitConverter$0$0({2}DF,SL:SL),C,0,0,0,0,0
00032                       	;--cdb--S:G$ADC_Open$0$0({2}DF,SV:S),C,0,0
00033                       	;--cdb--S:G$ADC_GetData$0$0({2}DF,SL:SL),C,0,0
00034                       	;--cdb--S:G$ADC_SDRVEnable$0$0({2}DF,SV:S),C,0,0
00035                       	;--cdb--S:G$ADC_SDRVDisable$0$0({2}DF,SV:S),C,0,0
00036                       	;--cdb--S:G$ClearLCD$0$0({2}DF,SV:S),C,0,0
00037                       	;--cdb--S:G$DisplayHycon$0$0({2}DF,SV:S),C,0,0
00038                       	;--cdb--S:G$DisplayHex$0$0({2}DF,SV:S),C,0,0
00039                       	;--cdb--S:G$Display2Er$0$0({2}DF,SV:S),C,0,0
00040                       	;--cdb--S:G$DisplayUnit$0$0({2}DF,SV:S),C,0,0
00041                       	;--cdb--S:G$DisplayHHH$0$0({2}DF,SV:S),C,0,0
00042                       	;--cdb--S:G$DisplayLLL$0$0({2}DF,SV:S),C,0,0
00043                       	;--cdb--S:G$Delay$0$0({2}DF,SV:S),C,0,0
00044                       	;--cdb--S:G$GPIO_Iint$0$0({2}DF,SV:S),C,0,0
00045                       	;--cdb--S:G$Reverse_Data$0$0({2}DF,SL:SL),C,0,0
00046                       	;--cdb--S:G$DisplayBatteryCapacityFull$0$0({2}DF,SV:S),C,0,0
00047                       	;--cdb--S:G$DisplayBatteryCapacityHalf$0$0({2}DF,SV:S),C,0,0
00048                       	;--cdb--S:G$DispalyBatteryCapacityLow$0$0({2}DF,SV:S),C,0,0
00049                       	;--cdb--S:G$HY17P52WR3$0$0({2}DF,SC:U),C,0,0
00050                       	;--cdb--S:G$HY17P52WR3Delay$0$0({2}DF,SV:S),C,0,0
00051                       	;--cdb--S:G$PGAandADCAccuracyMode$0$0({2}DF,SV:S),C,0,0
00052                       	;--cdb--S:G$AccuracyModeADCOFF$0$0({2}DF,SV:S),C,0,0
00053                       	;--cdb--S:G$ADCAccuracyMode$0$0({2}DF,SV:S),C,0,0
00054                       	;--cdb--S:G$ShowADC$0$0({2}DF,SV:S),C,0,0
00055                       	;--cdb--S:G$DisplayNum$0$0({2}DF,SV:S),C,0,0
00056                       	;--cdb--S:G$GPIO_Init$0$0({2}DF,SV:S),C,0,0
00057                       	;--cdb--S:G$main$0$0({2}DF,SV:S),C,0,0
00058                       	;--cdb--F:ADC_LCD:G$main$0$0({2}DF,SV:S),C,0,0,0,0,0
00059                       	;--cdb--S:G$__slong2fs$0$0({2}DF,SF:S),C,0,0
00060                       	;--cdb--S:G$__fsmul$0$0({2}DF,SF:S),C,0,0
00061                       	;--cdb--S:G$__fs2slong$0$0({2}DF,SL:SL),C,0,0
00062                       	;--cdb--S:G$__fssub$0$0({2}DF,SF:S),C,0,0
00063                       	;--cdb--S:G$__fsadd$0$0({2}DF,SF:S),C,0,0
00064                       	;--cdb--S:G$_mullong$0$0({2}DF,SL:SL),C,0,0
00065                       	;--cdb--S:G$ISR$0$0({2}DF,SV:S),C,0,0
00066                       	;--cdb--F:ADC_LCD:G$ISR$0$0({2}DF,SV:S),C,0,0,1,256,0
00067                       ;--------------------------------------------------------
00068                       ; overlayable items in internal ram 
00069                       ;--------------------------------------------------------
00070                       ;	udata_ovr
00071                       	.globl _main
00072                       ;--------------------------------------------------------
00073                       ; reset vector 
00074                       ;--------------------------------------------------------
00075                       	.area STARTUP	(code,REL,CON) 
00076 0000 0000             	nop
00077 0001 C200 F000        	jmp	__sdcc_gsinit_startup256fsr2
00078 0003 0000             	nop
00079                       ;--------------------------------------------------------
00080                       ; interrupt and initialization code
00081                       ;--------------------------------------------------------
00082                       	.area c_interrupt	(code,REL,CON)
00083 0000                  __sdcc_interrupt:
00084                       .globl _ISR
00085                       
00086                       ;--------------------------------------------------------
00087                       	.FUNC _ISR:0:$C:_ADC_GetData\
00088 0000 --              :$L:r0x11C3
00089                       ;--------------------------------------------------------
00090                       ;	;.line	871; ".\ADC_LCD.c"	if(ADIF_IsFlag())
00091 0000                  _ISR:	;Function start
00092 0000 BA26             	BTSS	_INTF0,5
00093 0001 C200 F000        	JMP	_00720_DS_
00094                       ;	;.line	873; ".\ADC_LCD.c"	ADIF_ClearFlag();
00095 0003 8A26             	BCF	_INTF0,5
00096                       ;	;.line	874; ".\ADC_LCD.c"	ADC=ADC_GetData();
00097 0004 C000 F000        	CALL	_ADC_GetData
00098                       	.CHKPARA _ADC_GetData 0
00099 0006 6600             	MVF	(_ADC + 3),1,0
00100 0007 6420             	MVF	STK00,0,0
00101 0008 6600             	MVF	(_ADC + 2),1,0
00102 0009 641F             	MVF	STK01,0,0
00103 000A 6600             	MVF	(_ADC + 1),1,0
00104 000B 641E             	MVF	STK02,0,0
00105 000C 6600             	MVF	_ADC,1,0
00106                       ;	;.line	875; ".\ADC_LCD.c"	MCUSTATUSbits.b_ADCdone=1;
00107 000D 9000             	BSF	_MCUSTATUSbits,0
00108 000E                  _00720_DS_:
00109                       ;	;.line	878; ".\ADC_LCD.c"	if(TA1IF_IsFlag())  //PT1.0  Timer A1 interrupt flag 
00110 000E BE27             	BTSS	_INTF1,7
00111 000F C200 F000        	JMP	_00726_DS_
00112                       ;	;.line	880; ".\ADC_LCD.c"	TA1IF_ClearFlag();
00113 0011 8E27             	BCF	_INTF1,7
00114                       ;	;.line	881; ".\ADC_LCD.c"	adS.delayTimes_3 ++;
00115 0012 6400             	MVF	(_adS + 16),0,0
00116 0013 6600             	MVF	r0x11C3,1,0
00117 0014 6400             	MVF	(_adS + 17),0,0
00118 0015 4200             	INSUZ	r0x11C3,1,0
00119 0016 0401             	ADDL	0x01
00120 0017 C600 F000        	MVSF	r0x11C3,(_adS + 16)
00121 0019 6600             	MVF	(_adS + 17),1,0
00122                       ;	;.line	882; ".\ADC_LCD.c"	adS.delayTimes_5++;
00123 001A 6400             	MVF	(_adS + 14),0,0
00124 001B 6600             	MVF	r0x11C3,1,0
00125 001C 6400             	MVF	(_adS + 15),0,0
00126 001D 4200             	INSUZ	r0x11C3,1,0
00127 001E 0401             	ADDL	0x01
00128 001F C600 F000        	MVSF	r0x11C3,(_adS + 14)
00129 0021 6600             	MVF	(_adS + 15),1,0
00130                       ;	;.line	884; ".\ADC_LCD.c"	if(adS.key_flag ==1||adS.key_flag==0) {
00131 0022 4400             	DCSUZ	(_adS + 4),0,0
00132 0023 C200 F000        	JMP	_00721_DS_
00133 0025 6E00             	TFSZ	(_adS + 4),0
00134 0026 C200 F000        	JMP	_00726_DS_
00135 0028                  _00721_DS_:
00136                       ;	;.line	885; ".\ADC_LCD.c"	adS.delayTimes_5 = 0;
00137 0028 0C00             	CLRF	(_adS + 14),0
00138 0029 0C00             	CLRF	(_adS + 15),0
00139                       ;	;.line	887; ".\ADC_LCD.c"	adS.delayTimes_3 =0;
00140 002A 0C00             	CLRF	(_adS + 16),0
00141 002B 0C00             	CLRF	(_adS + 17),0
00142                       ;	;.line	889; ".\ADC_LCD.c"	adS.key_flag =2;
00143 002C 0602             	MVL	0x02
00144 002D 6600             	MVF	(_adS + 4),1,0
00145                       ;	;.line	890; ".\ADC_LCD.c"	GPIO_PT15_HIGH();
00146 002E 06DF             	MVL	0xdf
00147 002F 2847             	ANDF	_PT1,0,0
00148 0030 0220             	IORL	0x20
00149 0031 6647             	MVF	_PT1,1,0
00150 0032                  _00726_DS_:
00151                       ;	;.line	900; ".\ADC_LCD.c"	}
00152 0032 0009             	RETI	 1
00153                       ; exit point of _ISR
00154 0033 --              	.ENDFUNC	_ISR
00155                       ;--------------------------------------------------------
00156                       
00157                       .area CCODE (code,REL,CON) ; ADC_LCD-code 
00158                       .globl _main
00159                       
00160                       ;--------------------------------------------------------
00161                       	.FUNC _main:0:$C:_GPIO_Iint:$C:_ADC_Open:$C:_PGAandADCAccuracyMode:$C:_DisplayUnit\
00162                       :$C:_Display2Er:$C:___slong2fs:$C:___fsmul:$C:___fs2slong:$C:_Delay\
00163                       :$C:_PositivePressureWorks_Mode:$C:___fssub:$C:_DisplayNum:$C:___fsadd:$C:_HY17P52WR3\
00164                       :$L:r0x1140:$L:r0x1141:$L:r0x1143:$L:r0x1142:$L:r0x1144\
00165                       :$L:r0x1145:$L:r0x1146:$L:r0x1147:$L:r0x1148:$L:r0x1149\
00166 0000 --              :$L:r0x114D:$L:r0x114C
00167                       ;--------------------------------------------------------
00168                       ;	;.line	100; ".\ADC_LCD.c"	CLK_OSCSelect(OSCS_HAO); //OSCS_HAO = 3.686MHz
00169 0000                  _main:	;Function start
00170 0000 9E35             	BSF	0x35,7
00171 0001 063F             	MVL	0x3f
00172 0002 2A34             	ANDF	_OSCCN0,1,0
00173                       ;	;.line	101; ".\ADC_LCD.c"	CLK_CPUCK_Sel(DHS_HSCKDIV1,CPUS_HSCK); //fre = 3.686Mhz /2 =1.843Mhz
00174 0003 06CE             	MVL	0xce
00175 0004 2A34             	ANDF	_OSCCN0,1,0
00176                       ;	;.line	102; ".\ADC_LCD.c"	GPIO_Iint() ;
00177 0005 C000 F000        	CALL	_GPIO_Iint
00178                       	.CHKPARA _GPIO_Iint 0
00179                       ;	;.line	105; ".\ADC_LCD.c"	PWR_BGREnable();
00180 0007 9E33             	BSF	_PWRCN,7
00181                       ;	;.line	106; ".\ADC_LCD.c"	PWR_LDOPLEnable();
00182 0008 9842             	BSF	_AD1CN5,4
00183                       ;	;.line	107; ".\ADC_LCD.c"	PWR_LDOEnable();
00184 0009 9233             	BSF	_PWRCN,1
00185                       ;	;.line	108; ".\ADC_LCD.c"	PWR_LDOSel(LDOC_2V4);
00186 000A 068F             	MVL	0x8f
00187 000B 2A33             	ANDF	_PWRCN,1,0
00188                       ;	;.line	110; ".\ADC_LCD.c"	ADC_Open(DADC_DHSCKDIV4, CPUS_DHSCK, INP_VSS ,INN_VSS, VRH_AI2, VRL_AI3, ADGN_16, PGAGN_8, VREGN_DIV2, DCSET_N0, OSR_65536,VCMS_V12);
00189 000C 0620             	MVL	0x20
00190 000D 6600             	MVF	_ADC_Open_STK10,1,0
00191 000E 0C00             	CLRF	_ADC_Open_STK09,0
00192 000F 0608             	MVL	0x08
00193 0010 6600             	MVF	_ADC_Open_STK08,1,0
00194 0011 0620             	MVL	0x20
00195 0012 6600             	MVF	_ADC_Open_STK07,1,0
00196 0013 0618             	MVL	0x18
00197 0014 6600             	MVF	_ADC_Open_STK06,1,0
00198 0015 0606             	MVL	0x06
00199 0016 6600             	MVF	_ADC_Open_STK05,1,0
00200 0017 0610             	MVL	0x10
00201 0018 6600             	MVF	_ADC_Open_STK04,1,0
00202 0019 0C00             	CLRF	_ADC_Open_STK03,0
00203 001A 0601             	MVL	0x01
00204 001B 6600             	MVF	_ADC_Open_STK02,1,0
00205 001C 0690             	MVL	0x90
00206 001D 6600             	MVF	_ADC_Open_STK01,1,0
00207 001E 0601             	MVL	0x01
00208 001F 6600             	MVF	_ADC_Open_STK00,1,0
00209 0020 0610             	MVL	0x10
00210 0021 C000 F000        	CALL	_ADC_Open
00211                       	.CHKPARA _ADC_Open 12
00212                       ;	;.line	113; ".\ADC_LCD.c"	PGAandADCAccuracyMode();
00213 0023 C000 F000        	CALL	_PGAandADCAccuracyMode
00214                       	.CHKPARA _PGAandADCAccuracyMode 0
00215                       ;	;.line	120; ".\ADC_LCD.c"	LCD_Enable();
00216 0025 9E5B             	BSF	_LCDCN1,7
00217                       ;	;.line	121; ".\ADC_LCD.c"	LCD_ChargePumpSelect(LCDV_3V0);
00218 0026 068F             	MVL	0x8f
00219 0027 285B             	ANDF	_LCDCN1,0,0
00220 0028 0240             	IORL	0x40
00221 0029 665B             	MVF	_LCDCN1,1,0
00222                       ;	;.line	122; ".\ADC_LCD.c"	LCD_OutBufferEnable();
00223 002A 965B             	BSF	_LCDCN1,3
00224                       ;	;.line	123; ".\ADC_LCD.c"	LCD_ChargePumpClk(SELPCLK_14KHZ);
00225 002B 845B             	BCF	_LCDCN1,2
00226                       ;	;.line	125; ".\ADC_LCD.c"	LCD_DisplayOn();
00227 002C 825C             	BCF	_LCDCN2,1
00228                       ;	;.line	128; ".\ADC_LCD.c"	LCD_PT60Mode(LCD);   //COM0
00229 002D 645D             	MVF	_LCDCN3,0,0
00230 002E 01FC             	ANDL	0xfc
00231 002F 0203             	IORL	0x03
00232 0030 665D             	MVF	_LCDCN3,1,0
00233 0031 01F3             	ANDL	0xf3
00234                       ;	;.line	129; ".\ADC_LCD.c"	LCD_PT61Mode(LCD);	 //COM1
00235 0032 020C             	IORL	0x0c
00236 0033 665D             	MVF	_LCDCN3,1,0
00237 0034 01CF             	ANDL	0xcf
00238                       ;	;.line	130; ".\ADC_LCD.c"	LCD_PT62Mode(LCD);   //COM2
00239 0035 0230             	IORL	0x30
00240 0036 665D             	MVF	_LCDCN3,1,0
00241 0037 013F             	ANDL	0x3f
00242                       ;	;.line	131; ".\ADC_LCD.c"	LCD_PT63Mode(LCD);   //COM3
00243 0038 02C0             	IORL	0xc0
00244 0039 665D             	MVF	_LCDCN3,1,0
00245                       ;	;.line	133; ".\ADC_LCD.c"	TMA1_CLKSelect(TMAS1_DMSCK); //freq = DMS_CK = 3.686Mhz/256 = 0.014398MHz      0.014398Mhz / 2= 7.2KHz
00246 003A 8A44             	BCF	_TMA1CN,5
00247                       ;	;.line	134; ".\ADC_LCD.c"	TMA1_CLKDiv(DTMA1_TMA1CKDIV2); // fdiv = 7.2KHz ,T = 0.138ms
00248 003B 06E3             	MVL	0xe3
00249 003C 2A44             	ANDF	_TMA1CN,1,0
00250                       ;	;.line	135; ".\ADC_LCD.c"	TMA1_CompSet(255);    //TMA1C cycle=10*TMA1R cycle 8bit = 255
00251 003D 0A46             	SETF	_TMA1C,0
00252                       ;	;.line	136; ".\ADC_LCD.c"	TA1IE_Enable();
00253 003E 9E24             	BSF	_INTE1,7
00254                       ;	;.line	138; ".\ADC_LCD.c"	TA1IF_ClearFlag();
00255 003F 8E27             	BCF	_INTF1,7
00256                       ;	;.line	140; ".\ADC_LCD.c"	TMA1_ClearTMA1();    //Clear TMA count
00257 0040 0C45             	CLRF	_TMA1R,0
00258                       ;	;.line	141; ".\ADC_LCD.c"	TMA1Enable();
00259 0041 9E44             	BSF	_TMA1CN,7
00260                       ;	;.line	143; ".\ADC_LCD.c"	ADIF_ClearFlag();
00261 0042 8A26             	BCF	_INTF0,5
00262                       ;	;.line	144; ".\ADC_LCD.c"	ADIE_Enable();
00263 0043 9A23             	BSF	_INTE0,5
00264                       ;	;.line	145; ".\ADC_LCD.c"	GIE_Enable();
00265 0044 9E23             	BSF	_INTE0,7
00266 0045                  _00173_DS_:
00267                       ;	;.line	151; ".\ADC_LCD.c"	if(GPIO_READ_PT10())
00268 0045 6447             	MVF	_PT1,0,0
00269 0046 0101             	ANDL	0x01
00270 0047 A02B             	BTSZ	_STATUS,0
00271 0048 C200 F000        	JMP	_00170_DS_
00272                       ;	;.line	157; ".\ADC_LCD.c"	if(adS.delayTimes_5 >= 10000){ /*unit set mode*/
00273 004A 06F0             	MVL	0xf0
00274 004B 1000             	ADDF	(_adS + 14),0,0
00275 004C 06D8             	MVL	0xd8
00276 004D 1400             	ADDC	(_adS + 15),0,0
00277 004E B82B             	BTSS	_STATUS,4
00278 004F C200 F000        	JMP	_00113_DS_
00279                       ;	;.line	159; ".\ADC_LCD.c"	if(GPIO_READ_PT10()){
00280 0051 6447             	MVF	_PT1,0,0
00281 0052 0101             	ANDL	0x01
00282 0053 A02B             	BTSZ	_STATUS,0
00283 0054 C200 F000        	JMP	_00113_DS_
00284                       ;	;.line	161; ".\ADC_LCD.c"	adS.delayTimes_5=8000;
00285 0056 0640             	MVL	0x40
00286 0057 6600             	MVF	(_adS + 14),1,0
00287 0058 061F             	MVL	0x1f
00288 0059 6600             	MVF	(_adS + 15),1,0
00289                       ;	;.line	162; ".\ADC_LCD.c"	adS.delayTimes_5 =0;
00290 005A 0C00             	CLRF	(_adS + 14),0
00291 005B 0C00             	CLRF	(_adS + 15),0
00292                       ;	;.line	163; ".\ADC_LCD.c"	adS.unit_setMode =1;
00293 005C 9200             	BSF	_adS,1
00294                       ;	;.line	165; ".\ADC_LCD.c"	adS.testMode =1;
00295 005D 9000             	BSF	(_adS+3),0
00296                       ;	;.line	166; ".\ADC_LCD.c"	DisplayUnit();
00297 005E C000 F000        	CALL	_DisplayUnit
00298                       	.CHKPARA _DisplayUnit 0
00299                       ;	;.line	168; ".\ADC_LCD.c"	adS.delayTimes_3=0;
00300 0060 0C00             	CLRF	(_adS + 16),0
00301 0061 0C00             	CLRF	(_adS + 17),0
00302                       ;	;.line	170; ".\ADC_LCD.c"	switch(adS.plus_uint){
00303 0062 6400             	MVF	(_adS + 1),0,0
00304 0063 6600             	MVF	r0x1140,1,0
00305 0064 04FC             	ADDL	0xfc
00306 0065 A82B             	BTSZ	_STATUS,4
00307 0066 C200 F000        	JMP	_00113_DS_
00308 0068 0600             	MVL	HIGHD2(_00340_DS_)
00309 0069 661A             	MVF	_PCLATH,1,0
00310 006A 0600             	MVL	D2(_00340_DS_)
00311 006B 1000             	ADDF	r0x1140,0,0
00312 006C A82B             	BTSZ	_STATUS,4
00313 006D 3A1A             	INF	_PCLATH,1,0
00314 006E 661B             	MVF	_PCLATL,1,0
00315 006F                  _00340_DS_:
00316 006F 7800             	RJ	_00105_DS_
00317 0070 7800             	RJ	_00106_DS_
00318 0071 7800             	RJ	_00107_DS_
00319 0072 7800             	RJ	_00108_DS_
00320 0073                  _00105_DS_:
00321                       ;	;.line	172; ".\ADC_LCD.c"	adS.plus_uint++;
00322 0073 3800             	INF	r0x1140,0,0
00323 0074 6600             	MVF	(_adS + 1),1,0
00324                       ;	;.line	173; ".\ADC_LCD.c"	adS.unitChoose = psi;
00325 0075 0C00             	CLRF	(_adS + 2),0
00326                       ;	;.line	174; ".\ADC_LCD.c"	LCD_WriteData(&LCD4,seg_psi);
00327 0076 0604             	MVL	0x04
00328 0077 6663             	MVF	_LCD4,1,0
00329                       ;	;.line	175; ".\ADC_LCD.c"	adS.delayTimes_5=8000;
00330 0078 0640             	MVL	0x40
00331 0079 6600             	MVF	(_adS + 14),1,0
00332 007A 061F             	MVL	0x1f
00333 007B 6600             	MVF	(_adS + 15),1,0
00334                       ;	;.line	176; ".\ADC_LCD.c"	break;
00335 007C C200 F000        	JMP	_00113_DS_
00336 007E                  _00106_DS_:
00337                       ;	;.line	178; ".\ADC_LCD.c"	adS.plus_uint++;
00338 007E 3800             	INF	r0x1140,0,0
00339 007F 6600             	MVF	(_adS + 1),1,0
00340                       ;	;.line	179; ".\ADC_LCD.c"	adS.unitChoose = bar;
00341 0080 0601             	MVL	0x01
00342 0081 6600             	MVF	(_adS + 2),1,0
00343                       ;	;.line	180; ".\ADC_LCD.c"	LCD_WriteData(&LCD4,seg_bar);
00344 0082 0602             	MVL	0x02
00345 0083 6663             	MVF	_LCD4,1,0
00346                       ;	;.line	181; ".\ADC_LCD.c"	adS.delayTimes_5=8000;
00347 0084 0640             	MVL	0x40
00348 0085 6600             	MVF	(_adS + 14),1,0
00349 0086 061F             	MVL	0x1f
00350 0087 6600             	MVF	(_adS + 15),1,0
00351                       ;	;.line	182; ".\ADC_LCD.c"	break;
00352 0088 C200 F000        	JMP	_00113_DS_
00353 008A                  _00107_DS_:
00354                       ;	;.line	184; ".\ADC_LCD.c"	adS.plus_uint++;
00355 008A 3A00             	INF	r0x1140,1,0
00356 008B 6400             	MVF	r0x1140,0,0
00357 008C 6600             	MVF	(_adS + 1),1,0
00358                       ;	;.line	185; ".\ADC_LCD.c"	adS.unitChoose = kgf;
00359 008D 0602             	MVL	0x02
00360 008E 6600             	MVF	(_adS + 2),1,0
00361                       ;	;.line	186; ".\ADC_LCD.c"	LCD_WriteData(&LCD4,seg_kgf);
00362 008F 0601             	MVL	0x01
00363 0090 6663             	MVF	_LCD4,1,0
00364                       ;	;.line	187; ".\ADC_LCD.c"	adS.delayTimes_5=8000;
00365 0091 0640             	MVL	0x40
00366 0092 6600             	MVF	(_adS + 14),1,0
00367 0093 061F             	MVL	0x1f
00368 0094 6600             	MVF	(_adS + 15),1,0
00369                       ;	;.line	188; ".\ADC_LCD.c"	break;
00370 0095 C200 F000        	JMP	_00113_DS_
00371 0097                  _00108_DS_:
00372                       ;	;.line	190; ".\ADC_LCD.c"	adS.plus_uint=0;
00373 0097 0C00             	CLRF	(_adS + 1),0
00374                       ;	;.line	191; ".\ADC_LCD.c"	adS.unitChoose = mpa;
00375 0098 0603             	MVL	0x03
00376 0099 6600             	MVF	(_adS + 2),1,0
00377                       ;	;.line	192; ".\ADC_LCD.c"	LCD_WriteData(&LCD4,seg_mpa);
00378 009A 0608             	MVL	0x08
00379 009B 6663             	MVF	_LCD4,1,0
00380                       ;	;.line	193; ".\ADC_LCD.c"	adS.delayTimes_5=8000;
00381 009C 0640             	MVL	0x40
00382 009D 6600             	MVF	(_adS + 14),1,0
00383 009E 061F             	MVL	0x1f
00384 009F 6600             	MVF	(_adS + 15),1,0
00385 00A0                  _00113_DS_:
00386                       ;	;.line	199; ".\ADC_LCD.c"	if(adS.delayTimes_3 >=5000){ /* zero point mode*/
00387 00A0 0678             	MVL	0x78
00388 00A1 1000             	ADDF	(_adS + 16),0,0
00389 00A2 06EC             	MVL	0xec
00390 00A3 1400             	ADDC	(_adS + 17),0,0
00391 00A4 B82B             	BTSS	_STATUS,4
00392 00A5 C200 F000        	JMP	_00173_DS_
00393                       ;	;.line	201; ".\ADC_LCD.c"	if(GPIO_READ_PT10()){
00394 00A7 6447             	MVF	_PT1,0,0
00395 00A8 0101             	ANDL	0x01
00396 00A9 A02B             	BTSZ	_STATUS,0
00397 00AA C200 F000        	JMP	_00173_DS_
00398                       ;	;.line	202; ".\ADC_LCD.c"	adS.zeroPoint_Mode = 1;
00399 00AC 9200             	BSF	(_adS+3),1
00400                       ;	;.line	204; ".\ADC_LCD.c"	adS.testMode =1;
00401 00AD 9000             	BSF	(_adS+3),0
00402                       ;	;.line	205; ".\ADC_LCD.c"	adS.delayTimes_3=0;
00403 00AE 0C00             	CLRF	(_adS + 16),0
00404 00AF 0C00             	CLRF	(_adS + 17),0
00405                       ;	;.line	207; ".\ADC_LCD.c"	Display2Er();
00406 00B0 C000 F000        	CALL	_Display2Er
00407                       	.CHKPARA _Display2Er 0
00408 00B2 C200 F000        	JMP	_00173_DS_
00409 00B4                  _00170_DS_:
00410                       ;	;.line	218; ".\ADC_LCD.c"	if(adS.testMode == 0){ /* measure mode */
00411 00B4 A000             	BTSZ	(_adS+3),0
00412 00B5 C200 F000        	JMP	_00138_DS_
00413                       ;	;.line	219; ".\ADC_LCD.c"	adS.zeroPoint_Mode=0;
00414 00B7 8200             	BCF	(_adS+3),1
00415                       ;	;.line	220; ".\ADC_LCD.c"	adS.key_flag =0;
00416 00B8 0C00             	CLRF	(_adS + 4),0
00417                       ;	;.line	221; ".\ADC_LCD.c"	adS.unit_setMode=0;
00418 00B9 8200             	BCF	_adS,1
00419                       ;	;.line	222; ".\ADC_LCD.c"	ADC_Open(DADC_DHSCKDIV4, CPUS_DHSCK, INP_VSS ,INN_VSS, VRH_AI2, VRL_AI3, ADGN_16, PGAGN_8, VREGN_DIV2, DCSET_N0, OSR_65536,VCMS_V12);
00420 00BA 0620             	MVL	0x20
00421 00BB 6600             	MVF	_ADC_Open_STK10,1,0
00422 00BC 0C00             	CLRF	_ADC_Open_STK09,0
00423 00BD 0608             	MVL	0x08
00424 00BE 6600             	MVF	_ADC_Open_STK08,1,0
00425 00BF 0620             	MVL	0x20
00426 00C0 6600             	MVF	_ADC_Open_STK07,1,0
00427 00C1 0618             	MVL	0x18
00428 00C2 6600             	MVF	_ADC_Open_STK06,1,0
00429 00C3 0606             	MVL	0x06
00430 00C4 6600             	MVF	_ADC_Open_STK05,1,0
00431 00C5 0610             	MVL	0x10
00432 00C6 6600             	MVF	_ADC_Open_STK04,1,0
00433 00C7 0C00             	CLRF	_ADC_Open_STK03,0
00434 00C8 0601             	MVL	0x01
00435 00C9 6600             	MVF	_ADC_Open_STK02,1,0
00436 00CA 0690             	MVL	0x90
00437 00CB 6600             	MVF	_ADC_Open_STK01,1,0
00438 00CC 0601             	MVL	0x01
00439 00CD 6600             	MVF	_ADC_Open_STK00,1,0
00440 00CE 0610             	MVL	0x10
00441 00CF C000 F000        	CALL	_ADC_Open
00442                       	.CHKPARA _ADC_Open 12
00443                       ;	;.line	223; ".\ADC_LCD.c"	ADIF_ClearFlag();
00444 00D1 8A26             	BCF	_INTF0,5
00445                       ;	;.line	224; ".\ADC_LCD.c"	ADIE_Enable();
00446 00D2 9A23             	BSF	_INTE0,5
00447                       ;	;.line	225; ".\ADC_LCD.c"	GIE_Enable();
00448 00D3 9E23             	BSF	_INTE0,7
00449                       ;	;.line	227; ".\ADC_LCD.c"	if(MCUSTATUSbits.b_ADCdone==1)
00450 00D4 B000             	BTSS	_MCUSTATUSbits,0
00451 00D5 C200 F000        	JMP	_00138_DS_
00452                       ;	;.line	229; ".\ADC_LCD.c"	MCUSTATUSbits.b_ADCdone=0;
00453 00D7 8000             	BCF	_MCUSTATUSbits,0
00454                       ;	;.line	231; ".\ADC_LCD.c"	ADC=ADC>>6;
00455 00D8 6000             	SWPF	_ADC,0,0
00456 00D9 010F             	ANDL	0x0f
00457 00DA 6600             	MVF	_ADC,1,0
00458 00DB 6000             	SWPF	(_ADC + 1),0,0
00459 00DC 6600             	MVF	(_ADC + 1),1,0
00460 00DD 01F0             	ANDL	0xf0
00461 00DE 2E00             	IORF	_ADC,1,0
00462 00DF 2200             	XORF	(_ADC + 1),1,0
00463 00E0 6000             	SWPF	(_ADC + 2),0,0
00464 00E1 6600             	MVF	(_ADC + 2),1,0
00465 00E2 01F0             	ANDL	0xf0
00466 00E3 2E00             	IORF	(_ADC + 1),1,0
00467 00E4 2200             	XORF	(_ADC + 2),1,0
00468 00E5 6000             	SWPF	(_ADC + 3),0,0
00469 00E6 6600             	MVF	(_ADC + 3),1,0
00470 00E7 01F0             	ANDL	0xf0
00471 00E8 2E00             	IORF	(_ADC + 2),1,0
00472 00E9 2200             	XORF	(_ADC + 3),1,0
00473 00EA 06F0             	MVL	0xf0
00474 00EB A600             	BTSZ	(_ADC + 3),3
00475 00EC 2E00             	IORF	(_ADC + 3),1,0
00476 00ED 5E00             	ARRC	(_ADC + 3),1,0
00477 00EE 5200             	RRFC	(_ADC + 2),1,0
00478 00EF 5200             	RRFC	(_ADC + 1),1,0
00479 00F0 5200             	RRFC	_ADC,1,0
00480 00F1 5E00             	ARRC	(_ADC + 3),1,0
00481 00F2 5200             	RRFC	(_ADC + 2),1,0
00482 00F3 5200             	RRFC	(_ADC + 1),1,0
00483 00F4 5200             	RRFC	_ADC,1,0
00484                       ;	;.line	233; ".\ADC_LCD.c"	ADC = ADC * 0.1 ;
00485 00F5 6400             	MVF	_ADC,0,0
00486 00F6 6600             	MVF	___slong2fs_STK02,1,0
00487 00F7 6400             	MVF	(_ADC + 1),0,0
00488 00F8 6600             	MVF	___slong2fs_STK01,1,0
00489 00F9 6400             	MVF	(_ADC + 2),0,0
00490 00FA 6600             	MVF	___slong2fs_STK00,1,0
00491 00FB 6400             	MVF	(_ADC + 3),0,0
00492 00FC C000 F000        	CALL	___slong2fs
00493                       	.CHKPARA ___slong2fs 4
00494 00FE 6600             	MVF	r0x1143,1,0
00495 00FF 641E             	MVF	STK02,0,0
00496 0100 6600             	MVF	___fsmul_STK06,1,0
00497 0101 641F             	MVF	STK01,0,0
00498 0102 6600             	MVF	___fsmul_STK05,1,0
00499 0103 6420             	MVF	STK00,0,0
00500 0104 6600             	MVF	___fsmul_STK04,1,0
00501 0105 6400             	MVF	r0x1143,0,0
00502 0106 6600             	MVF	___fsmul_STK03,1,0
00503 0107 06CD             	MVL	0xcd
00504 0108 6600             	MVF	___fsmul_STK02,1,0
00505 0109 06CC             	MVL	0xcc
00506 010A 6600             	MVF	___fsmul_STK01,1,0
00507 010B 6600             	MVF	___fsmul_STK00,1,0
00508 010C 063D             	MVL	0x3d
00509 010D C000 F000        	CALL	___fsmul
00510                       	.CHKPARA ___fsmul 8
00511 010F 6600             	MVF	r0x1143,1,0
00512 0110 641E             	MVF	STK02,0,0
00513 0111 6600             	MVF	___fs2slong_STK02,1,0
00514 0112 641F             	MVF	STK01,0,0
00515 0113 6600             	MVF	___fs2slong_STK01,1,0
00516 0114 6420             	MVF	STK00,0,0
00517 0115 6600             	MVF	___fs2slong_STK00,1,0
00518 0116 6400             	MVF	r0x1143,0,0
00519 0117 C000 F000        	CALL	___fs2slong
00520                       	.CHKPARA ___fs2slong 4
00521 0119 6600             	MVF	(_ADC + 3),1,0
00522 011A 6420             	MVF	STK00,0,0
00523 011B 6600             	MVF	(_ADC + 2),1,0
00524 011C 641F             	MVF	STK01,0,0
00525 011D 6600             	MVF	(_ADC + 1),1,0
00526 011E 641E             	MVF	STK02,0,0
00527 011F 6600             	MVF	_ADC,1,0
00528                       ;	;.line	234; ".\ADC_LCD.c"	GPIO_PT16_HIGH();
00529 0120 06BF             	MVL	0xbf
00530 0121 2847             	ANDF	_PT1,0,0
00531 0122 0240             	IORL	0x40
00532 0123 6647             	MVF	_PT1,1,0
00533                       ;	;.line	235; ".\ADC_LCD.c"	Delay(20000);
00534 0124 0620             	MVL	0x20
00535 0125 6600             	MVF	_Delay_STK00,1,0
00536 0126 064E             	MVL	0x4e
00537 0127 C000 F000        	CALL	_Delay
00538                       	.CHKPARA _Delay 2
00539                       ;	;.line	236; ".\ADC_LCD.c"	GPIO_PT16_LOW();
00540 0129 8C47             	BCF	_PT1,6
00541                       ;	;.line	237; ".\ADC_LCD.c"	if((ADC<0)||(ADC>0x80000000))
00542 012A AE00             	BTSZ	(_ADC + 3),7
00543 012B C200 F000        	JMP	_00122_DS_
00544 012D 3000             	DCF	_ADC,0,0
00545 012E 06FF             	MVL	0xff
00546 012F 1400             	ADDC	(_ADC + 1),0,0
00547 0130 06FF             	MVL	0xff
00548 0131 1400             	ADDC	(_ADC + 2),0,0
00549 0132 067F             	MVL	0x7f
00550 0133 1400             	ADDC	(_ADC + 3),0,0
00551 0134 B82B             	BTSS	_STATUS,4
00552 0135 C200 F000        	JMP	_00123_DS_
00553 0137                  _00122_DS_:
00554                       ;	;.line	240; ".\ADC_LCD.c"	adS.Pressure_sign =1;
00555 0137 9C00             	BSF	(_adS+6),6
00556 0138 C200 F000        	JMP	_00124_DS_
00557 013A                  _00123_DS_:
00558                       ;	;.line	244; ".\ADC_LCD.c"	if( ADC < 1600 && ADC >=0 ) {
00559 013A 06C0             	MVL	0xc0
00560 013B 1000             	ADDF	_ADC,0,0
00561 013C 06F9             	MVL	0xf9
00562 013D 1400             	ADDC	(_ADC + 1),0,0
00563 013E 06FF             	MVL	0xff
00564 013F 1400             	ADDC	(_ADC + 2),0,0
00565 0140 067F             	MVL	0x7f
00566 0141 1400             	ADDC	(_ADC + 3),0,0
00567 0142 A22B             	BTSZ	_STATUS,1
00568 0143 C200 F000        	JMP	_00119_DS_
00569 0145 AE00             	BTSZ	(_ADC + 3),7
00570 0146 C200 F000        	JMP	_00119_DS_
00571                       ;	;.line	245; ".\ADC_LCD.c"	adS.Pressure_sign =1;
00572 0148 9C00             	BSF	(_adS+6),6
00573 0149 C200 F000        	JMP	_00124_DS_
00574 014B                  _00119_DS_:
00575                       ;	;.line	249; ".\ADC_LCD.c"	adS.Pressure_sign =0;
00576 014B 8C00             	BCF	(_adS+6),6
00577 014C                  _00124_DS_:
00578                       ;	;.line	255; ".\ADC_LCD.c"	if(adS.Pressure_sign == 0){/*Input positive Pressure mode*/
00579 014C AC00             	BTSZ	(_adS+6),6
00580 014D C200 F000        	JMP	_00133_DS_
00581                       ;	;.line	257; ".\ADC_LCD.c"	PositivePressureWorks_Mode();
00582 014F C000 F000        	CALL	_PositivePressureWorks_Mode
00583                       	.CHKPARA _PositivePressureWorks_Mode 0
00584 0151 C200 F000        	JMP	_00138_DS_
00585 0153                  _00133_DS_:
00586                       ;	;.line	261; ".\ADC_LCD.c"	adS.Pressure_sign =1;
00587 0153 9C00             	BSF	(_adS+6),6
00588                       ;	;.line	264; ".\ADC_LCD.c"	theta= abs(ADC) - adS.m_offset_value;  
00589 0154 3000             	DCF	_ADC,0,0
00590 0155 06FF             	MVL	0xff
00591 0156 1400             	ADDC	(_ADC + 1),0,0
00592 0157 06FF             	MVL	0xff
00593 0158 1400             	ADDC	(_ADC + 2),0,0
00594 0159 067F             	MVL	0x7f
00595 015A 1400             	ADDC	(_ADC + 3),0,0
00596 015B B22B             	BTSS	_STATUS,1
00597 015C C200 F000        	JMP	_00177_DS_
00598 015E 6400             	MVF	_ADC,0,0
00599 015F 6600             	MVF	r0x1144,1,0
00600 0160 6400             	MVF	(_ADC + 1),0,0
00601 0161 6600             	MVF	r0x1145,1,0
00602 0162 6400             	MVF	(_ADC + 2),0,0
00603 0163 6600             	MVF	r0x1146,1,0
00604 0164 6400             	MVF	(_ADC + 3),0,0
00605 0165 6600             	MVF	r0x1147,1,0
00606 0166 C200 F000        	JMP	_00178_DS_
00607 0168                  _00177_DS_:
00608 0168 2400             	COMF	_ADC,0,0
00609 0169 6600             	MVF	r0x1144,1,0
00610 016A 2400             	COMF	(_ADC + 1),0,0
00611 016B 6600             	MVF	r0x1145,1,0
00612 016C 2400             	COMF	(_ADC + 2),0,0
00613 016D 6600             	MVF	r0x1146,1,0
00614 016E 2400             	COMF	(_ADC + 3),0,0
00615 016F 6600             	MVF	r0x1147,1,0
00616 0170 3A00             	INF	r0x1144,1,0
00617 0171 0600             	MVL	0x00
00618 0172 1600             	ADDC	r0x1145,1,0
00619 0173 1600             	ADDC	r0x1146,1,0
00620 0174 1600             	ADDC	r0x1147,1,0
00621 0175                  _00178_DS_:
00622 0175 0600             	MVL	0x00
00623 0176 AE00             	BTSZ	(_adS + 19),7
00624 0177 06FF             	MVL	0xff
00625 0178 6600             	MVF	r0x114D,1,0
00626 0179 6600             	MVF	r0x114C,1,0
00627 017A 6400             	MVF	(_adS + 18),0,0
00628 017B 1A00             	SUBF	r0x1144,1,0
00629 017C 6400             	MVF	(_adS + 19),0,0
00630 017D 1E00             	SUBC	r0x1145,1,0
00631 017E 6400             	MVF	r0x114C,0,0
00632 017F 1E00             	SUBC	r0x1146,1,0
00633 0180 6400             	MVF	r0x114D,0,0
00634 0181 1E00             	SUBC	r0x1147,1,0
00635                       ;	;.line	265; ".\ADC_LCD.c"	if(adS.minus_revise_flag==1){
00636 0182 B800             	BTSS	(_adS+6),4
00637 0183 C200 F000        	JMP	_00130_DS_
00638                       ;	;.line	270; ".\ADC_LCD.c"	if(delta >=0 ){
00639 0185 AE00             	BTSZ	(_ADC + 3),7
00640 0186 C200 F000        	JMP	_00127_DS_
00641                       ;	;.line	271; ".\ADC_LCD.c"	LCDDisplay= 200 - 0.126*theta ;//y = -0.0126x + 20.075
00642 0188 6400             	MVF	r0x1144,0,0
00643 0189 6600             	MVF	___slong2fs_STK02,1,0
00644 018A 6400             	MVF	r0x1145,0,0
00645 018B 6600             	MVF	___slong2fs_STK01,1,0
00646 018C 6400             	MVF	r0x1146,0,0
00647 018D 6600             	MVF	___slong2fs_STK00,1,0
00648 018E 6400             	MVF	r0x1147,0,0
00649 018F C000 F000        	CALL	___slong2fs
00650                       	.CHKPARA ___slong2fs 4
00651 0191 6600             	MVF	r0x1143,1,0
00652 0192 641E             	MVF	STK02,0,0
00653 0193 6600             	MVF	___fsmul_STK06,1,0
00654 0194 641F             	MVF	STK01,0,0
00655 0195 6600             	MVF	___fsmul_STK05,1,0
00656 0196 6420             	MVF	STK00,0,0
00657 0197 6600             	MVF	___fsmul_STK04,1,0
00658 0198 6400             	MVF	r0x1143,0,0
00659 0199 6600             	MVF	___fsmul_STK03,1,0
00660 019A 0625             	MVL	0x25
00661 019B 6600             	MVF	___fsmul_STK02,1,0
00662 019C 0606             	MVL	0x06
00663 019D 6600             	MVF	___fsmul_STK01,1,0
00664 019E 0601             	MVL	0x01
00665 019F 6600             	MVF	___fsmul_STK00,1,0
00666 01A0 063E             	MVL	0x3e
00667 01A1 C000 F000        	CALL	___fsmul
00668                       	.CHKPARA ___fsmul 8
00669 01A3 6600             	MVF	r0x1143,1,0
00670 01A4 641E             	MVF	STK02,0,0
00671 01A5 6600             	MVF	___fssub_STK06,1,0
00672 01A6 641F             	MVF	STK01,0,0
00673 01A7 6600             	MVF	___fssub_STK05,1,0
00674 01A8 6420             	MVF	STK00,0,0
00675 01A9 6600             	MVF	___fssub_STK04,1,0
00676 01AA 6400             	MVF	r0x1143,0,0
00677 01AB 6600             	MVF	___fssub_STK03,1,0
00678 01AC 0C00             	CLRF	___fssub_STK02,0
00679 01AD 0C00             	CLRF	___fssub_STK01,0
00680 01AE 0648             	MVL	0x48
00681 01AF 6600             	MVF	___fssub_STK00,1,0
00682 01B0 0643             	MVL	0x43
00683 01B1 C000 F000        	CALL	___fssub
00684                       	.CHKPARA ___fssub 8
00685 01B3 6600             	MVF	r0x1143,1,0
00686 01B4 641E             	MVF	STK02,0,0
00687                       ;	;.line	272; ".\ADC_LCD.c"	DisplayNum( LCDDisplay);
00688 01B5 6600             	MVF	___fs2slong_STK02,1,0
00689 01B6 641F             	MVF	STK01,0,0
00690 01B7 6600             	MVF	___fs2slong_STK01,1,0
00691 01B8 6420             	MVF	STK00,0,0
00692 01B9 6600             	MVF	___fs2slong_STK00,1,0
00693 01BA 6400             	MVF	r0x1143,0,0
00694 01BB C000 F000        	CALL	___fs2slong
00695                       	.CHKPARA ___fs2slong 4
00696 01BD 6600             	MVF	r0x1143,1,0
00697 01BE 641E             	MVF	STK02,0,0
00698 01BF 6600             	MVF	_DisplayNum_STK02,1,0
00699 01C0 641F             	MVF	STK01,0,0
00700 01C1 6600             	MVF	_DisplayNum_STK01,1,0
00701 01C2 6420             	MVF	STK00,0,0
00702 01C3 6600             	MVF	_DisplayNum_STK00,1,0
00703 01C4 6400             	MVF	r0x1143,0,0
00704 01C5 C000 F000        	CALL	_DisplayNum
00705                       	.CHKPARA _DisplayNum 4
00706                       ;	;.line	273; ".\ADC_LCD.c"	Delay(20000);
00707 01C7 0620             	MVL	0x20
00708 01C8 6600             	MVF	_Delay_STK00,1,0
00709 01C9 064E             	MVL	0x4e
00710 01CA C000 F000        	CALL	_Delay
00711                       	.CHKPARA _Delay 2
00712 01CC C200 F000        	JMP	_00138_DS_
00713 01CE                  _00127_DS_:
00714                       ;	;.line	284; ".\ADC_LCD.c"	LCDDisplay= 0.125*theta + 204; //y = 0.0125x + 19.849//y = 0.0125x + 19.854
00715 01CE 6400             	MVF	r0x1144,0,0
00716 01CF 6600             	MVF	___slong2fs_STK02,1,0
00717 01D0 6400             	MVF	r0x1145,0,0
00718 01D1 6600             	MVF	___slong2fs_STK01,1,0
00719 01D2 6400             	MVF	r0x1146,0,0
00720 01D3 6600             	MVF	___slong2fs_STK00,1,0
00721 01D4 6400             	MVF	r0x1147,0,0
00722 01D5 C000 F000        	CALL	___slong2fs
00723                       	.CHKPARA ___slong2fs 4
00724 01D7 6600             	MVF	r0x1143,1,0
00725 01D8 641E             	MVF	STK02,0,0
00726 01D9 6600             	MVF	___fsmul_STK06,1,0
00727 01DA 641F             	MVF	STK01,0,0
00728 01DB 6600             	MVF	___fsmul_STK05,1,0
00729 01DC 6420             	MVF	STK00,0,0
00730 01DD 6600             	MVF	___fsmul_STK04,1,0
00731 01DE 6400             	MVF	r0x1143,0,0
00732 01DF 6600             	MVF	___fsmul_STK03,1,0
00733 01E0 0C00             	CLRF	___fsmul_STK02,0
00734 01E1 0C00             	CLRF	___fsmul_STK01,0
00735 01E2 0C00             	CLRF	___fsmul_STK00,0
00736 01E3 063E             	MVL	0x3e
00737 01E4 C000 F000        	CALL	___fsmul
00738                       	.CHKPARA ___fsmul 8
00739 01E6 6600             	MVF	r0x1143,1,0
00740 01E7 0C00             	CLRF	___fsadd_STK06,0
00741 01E8 0C00             	CLRF	___fsadd_STK05,0
00742 01E9 064C             	MVL	0x4c
00743 01EA 6600             	MVF	___fsadd_STK04,1,0
00744 01EB 0643             	MVL	0x43
00745 01EC 6600             	MVF	___fsadd_STK03,1,0
00746 01ED 641E             	MVF	STK02,0,0
00747 01EE 6600             	MVF	___fsadd_STK02,1,0
00748 01EF 641F             	MVF	STK01,0,0
00749 01F0 6600             	MVF	___fsadd_STK01,1,0
00750 01F1 6420             	MVF	STK00,0,0
00751 01F2 6600             	MVF	___fsadd_STK00,1,0
00752 01F3 6400             	MVF	r0x1143,0,0
00753 01F4 C000 F000        	CALL	___fsadd
00754                       	.CHKPARA ___fsadd 8
00755 01F6 6600             	MVF	r0x1143,1,0
00756 01F7 641E             	MVF	STK02,0,0
00757                       ;	;.line	285; ".\ADC_LCD.c"	DisplayNum( LCDDisplay);
00758 01F8 6600             	MVF	___fs2slong_STK02,1,0
00759 01F9 641F             	MVF	STK01,0,0
00760 01FA 6600             	MVF	___fs2slong_STK01,1,0
00761 01FB 6420             	MVF	STK00,0,0
00762 01FC 6600             	MVF	___fs2slong_STK00,1,0
00763 01FD 6400             	MVF	r0x1143,0,0
00764 01FE C000 F000        	CALL	___fs2slong
00765                       	.CHKPARA ___fs2slong 4
00766 0200 6600             	MVF	r0x1143,1,0
00767 0201 641E             	MVF	STK02,0,0
00768 0202 6600             	MVF	_DisplayNum_STK02,1,0
00769 0203 641F             	MVF	STK01,0,0
00770 0204 6600             	MVF	_DisplayNum_STK01,1,0
00771 0205 6420             	MVF	STK00,0,0
00772 0206 6600             	MVF	_DisplayNum_STK00,1,0
00773 0207 6400             	MVF	r0x1143,0,0
00774 0208 C000 F000        	CALL	_DisplayNum
00775                       	.CHKPARA _DisplayNum 4
00776                       ;	;.line	286; ".\ADC_LCD.c"	Delay(20000);
00777 020A 0620             	MVL	0x20
00778 020B 6600             	MVF	_Delay_STK00,1,0
00779 020C 064E             	MVL	0x4e
00780 020D C000 F000        	CALL	_Delay
00781                       	.CHKPARA _Delay 2
00782 020F C200 F000        	JMP	_00138_DS_
00783 0211                  _00130_DS_:
00784                       ;	;.line	293; ".\ADC_LCD.c"	ADC = abs(ADC);
00785 0211 3000             	DCF	_ADC,0,0
00786 0212 06FF             	MVL	0xff
00787 0213 1400             	ADDC	(_ADC + 1),0,0
00788 0214 06FF             	MVL	0xff
00789 0215 1400             	ADDC	(_ADC + 2),0,0
00790 0216 067F             	MVL	0x7f
00791 0217 1400             	ADDC	(_ADC + 3),0,0
00792 0218 B22B             	BTSS	_STATUS,1
00793 0219 C200 F000        	JMP	_00179_DS_
00794 021B 6400             	MVF	_ADC,0,0
00795 021C 6600             	MVF	r0x1140,1,0
00796 021D 6400             	MVF	(_ADC + 1),0,0
00797 021E 6600             	MVF	r0x1141,1,0
00798 021F 6400             	MVF	(_ADC + 2),0,0
00799 0220 6600             	MVF	r0x1142,1,0
00800 0221 6400             	MVF	(_ADC + 3),0,0
00801 0222 6600             	MVF	r0x1143,1,0
00802 0223 C200 F000        	JMP	_00180_DS_
00803 0225                  _00179_DS_:
00804 0225 2400             	COMF	_ADC,0,0
00805 0226 6600             	MVF	r0x1140,1,0
00806 0227 2400             	COMF	(_ADC + 1),0,0
00807 0228 6600             	MVF	r0x1141,1,0
00808 0229 2400             	COMF	(_ADC + 2),0,0
00809 022A 6600             	MVF	r0x1142,1,0
00810 022B 2400             	COMF	(_ADC + 3),0,0
00811 022C 6600             	MVF	r0x1143,1,0
00812 022D 3A00             	INF	r0x1140,1,0
00813 022E 0600             	MVL	0x00
00814 022F 1600             	ADDC	r0x1141,1,0
00815 0230 1600             	ADDC	r0x1142,1,0
00816 0231 1600             	ADDC	r0x1143,1,0
00817 0232                  _00180_DS_:
00818 0232 6400             	MVF	r0x1140,0,0
00819 0233 6600             	MVF	_ADC,1,0
00820 0234 6400             	MVF	r0x1141,0,0
00821 0235 6600             	MVF	(_ADC + 1),1,0
00822 0236 6400             	MVF	r0x1142,0,0
00823 0237 6600             	MVF	(_ADC + 2),1,0
00824 0238 6400             	MVF	r0x1143,0,0
00825 0239 6600             	MVF	(_ADC + 3),1,0
00826                       ;	;.line	294; ".\ADC_LCD.c"	DisplayNum(ADC);
00827 023A 6400             	MVF	_ADC,0,0
00828 023B 6600             	MVF	_DisplayNum_STK02,1,0
00829 023C 6400             	MVF	(_ADC + 1),0,0
00830 023D 6600             	MVF	_DisplayNum_STK01,1,0
00831 023E 6400             	MVF	(_ADC + 2),0,0
00832 023F 6600             	MVF	_DisplayNum_STK00,1,0
00833 0240 6400             	MVF	(_ADC + 3),0,0
00834 0241 C000 F000        	CALL	_DisplayNum
00835                       	.CHKPARA _DisplayNum 4
00836                       ;	;.line	295; ".\ADC_LCD.c"	Delay(20000);
00837 0243 0620             	MVL	0x20
00838 0244 6600             	MVF	_Delay_STK00,1,0
00839 0245 064E             	MVL	0x4e
00840 0246 C000 F000        	CALL	_Delay
00841                       	.CHKPARA _Delay 2
00842 0248                  _00138_DS_:
00843                       ;	;.line	300; ".\ADC_LCD.c"	if(adS.zeroPoint_Mode == 1){ /*zero point mode */
00844 0248 B200             	BTSS	(_adS+3),1
00845 0249 C200 F000        	JMP	_00147_DS_
00846                       ;	;.line	302; ".\ADC_LCD.c"	adS.zeroPoint_Mode =0;
00847 024B 8200             	BCF	(_adS+3),1
00848                       ;	;.line	303; ".\ADC_LCD.c"	adS.testMode=0;
00849 024C 8000             	BCF	(_adS+3),0
00850                       ;	;.line	304; ".\ADC_LCD.c"	ADC=ADC>>6;
00851 024D 6000             	SWPF	_ADC,0,0
00852 024E 010F             	ANDL	0x0f
00853 024F 6600             	MVF	_ADC,1,0
00854 0250 6000             	SWPF	(_ADC + 1),0,0
00855 0251 6600             	MVF	(_ADC + 1),1,0
00856 0252 01F0             	ANDL	0xf0
00857 0253 2E00             	IORF	_ADC,1,0
00858 0254 2200             	XORF	(_ADC + 1),1,0
00859 0255 6000             	SWPF	(_ADC + 2),0,0
00860 0256 6600             	MVF	(_ADC + 2),1,0
00861 0257 01F0             	ANDL	0xf0
00862 0258 2E00             	IORF	(_ADC + 1),1,0
00863 0259 2200             	XORF	(_ADC + 2),1,0
00864 025A 6000             	SWPF	(_ADC + 3),0,0
00865 025B 6600             	MVF	(_ADC + 3),1,0
00866 025C 01F0             	ANDL	0xf0
00867 025D 2E00             	IORF	(_ADC + 2),1,0
00868 025E 2200             	XORF	(_ADC + 3),1,0
00869 025F 06F0             	MVL	0xf0
00870 0260 A600             	BTSZ	(_ADC + 3),3
00871 0261 2E00             	IORF	(_ADC + 3),1,0
00872 0262 5E00             	ARRC	(_ADC + 3),1,0
00873 0263 5200             	RRFC	(_ADC + 2),1,0
00874 0264 5200             	RRFC	(_ADC + 1),1,0
00875 0265 5200             	RRFC	_ADC,1,0
00876 0266 5E00             	ARRC	(_ADC + 3),1,0
00877 0267 5200             	RRFC	(_ADC + 2),1,0
00878 0268 5200             	RRFC	(_ADC + 1),1,0
00879 0269 5200             	RRFC	_ADC,1,0
00880                       ;	;.line	305; ".\ADC_LCD.c"	ADC = ADC * 0.1;
00881 026A 6400             	MVF	_ADC,0,0
00882 026B 6600             	MVF	___slong2fs_STK02,1,0
00883 026C 6400             	MVF	(_ADC + 1),0,0
00884 026D 6600             	MVF	___slong2fs_STK01,1,0
00885 026E 6400             	MVF	(_ADC + 2),0,0
00886 026F 6600             	MVF	___slong2fs_STK00,1,0
00887 0270 6400             	MVF	(_ADC + 3),0,0
00888 0271 C000 F000        	CALL	___slong2fs
00889                       	.CHKPARA ___slong2fs 4
00890 0273 6600             	MVF	r0x1143,1,0
00891 0274 641E             	MVF	STK02,0,0
00892 0275 6600             	MVF	___fsmul_STK06,1,0
00893 0276 641F             	MVF	STK01,0,0
00894 0277 6600             	MVF	___fsmul_STK05,1,0
00895 0278 6420             	MVF	STK00,0,0
00896 0279 6600             	MVF	___fsmul_STK04,1,0
00897 027A 6400             	MVF	r0x1143,0,0
00898 027B 6600             	MVF	___fsmul_STK03,1,0
00899 027C 06CD             	MVL	0xcd
00900 027D 6600             	MVF	___fsmul_STK02,1,0
00901 027E 06CC             	MVL	0xcc
00902 027F 6600             	MVF	___fsmul_STK01,1,0
00903 0280 6600             	MVF	___fsmul_STK00,1,0
00904 0281 063D             	MVL	0x3d
00905 0282 C000 F000        	CALL	___fsmul
00906                       	.CHKPARA ___fsmul 8
00907 0284 6600             	MVF	r0x1143,1,0
00908 0285 641E             	MVF	STK02,0,0
00909 0286 6600             	MVF	___fs2slong_STK02,1,0
00910 0287 641F             	MVF	STK01,0,0
00911 0288 6600             	MVF	___fs2slong_STK01,1,0
00912 0289 6420             	MVF	STK00,0,0
00913 028A 6600             	MVF	___fs2slong_STK00,1,0
00914 028B 6400             	MVF	r0x1143,0,0
00915 028C C000 F000        	CALL	___fs2slong
00916                       	.CHKPARA ___fs2slong 4
00917 028E 6600             	MVF	(_ADC + 3),1,0
00918 028F 6420             	MVF	STK00,0,0
00919 0290 6600             	MVF	(_ADC + 2),1,0
00920 0291 641F             	MVF	STK01,0,0
00921 0292 6600             	MVF	(_ADC + 1),1,0
00922 0293 641E             	MVF	STK02,0,0
00923 0294 6600             	MVF	_ADC,1,0
00924                       ;	;.line	306; ".\ADC_LCD.c"	if((ADC<0)||(ADC>0x80000000))
00925 0295 AE00             	BTSZ	(_ADC + 3),7
00926 0296 C200 F000        	JMP	_00139_DS_
00927 0298 3000             	DCF	_ADC,0,0
00928 0299 06FF             	MVL	0xff
00929 029A 1400             	ADDC	(_ADC + 1),0,0
00930 029B 06FF             	MVL	0xff
00931 029C 1400             	ADDC	(_ADC + 2),0,0
00932 029D 067F             	MVL	0x7f
00933 029E 1400             	ADDC	(_ADC + 3),0,0
00934 029F B82B             	BTSS	_STATUS,4
00935 02A0 C200 F000        	JMP	_00140_DS_
00936 02A2                  _00139_DS_:
00937                       ;	;.line	309; ".\ADC_LCD.c"	adS.Pressure_sign =1;
00938 02A2 9C00             	BSF	(_adS+6),6
00939 02A3 C200 F000        	JMP	_00141_DS_
00940 02A5                  _00140_DS_:
00941                       ;	;.line	313; ".\ADC_LCD.c"	adS.Pressure_sign =0;
00942 02A5 8C00             	BCF	(_adS+6),6
00943 02A6                  _00141_DS_:
00944                       ;	;.line	319; ".\ADC_LCD.c"	if(adS.Pressure_sign==1){ /*negative pressure "-"*/
00945 02A6 BC00             	BTSS	(_adS+6),6
00946 02A7 C200 F000        	JMP	_00144_DS_
00947                       ;	;.line	320; ".\ADC_LCD.c"	adS.m_offset_value = abs(ADC) - STD_NEGATIVE_VOLTAGE + 1;
00948 02A9 3000             	DCF	_ADC,0,0
00949 02AA 06FF             	MVL	0xff
00950 02AB 1400             	ADDC	(_ADC + 1),0,0
00951 02AC 06FF             	MVL	0xff
00952 02AD 1400             	ADDC	(_ADC + 2),0,0
00953 02AE 067F             	MVL	0x7f
00954 02AF 1400             	ADDC	(_ADC + 3),0,0
00955 02B0 B22B             	BTSS	_STATUS,1
00956 02B1 C200 F000        	JMP	_00181_DS_
00957 02B3 6400             	MVF	_ADC,0,0
00958 02B4 6600             	MVF	r0x1140,1,0
00959 02B5 6400             	MVF	(_ADC + 1),0,0
00960 02B6 6600             	MVF	r0x1141,1,0
00961 02B7 C200 F000        	JMP	_00182_DS_
00962 02B9                  _00181_DS_:
00963 02B9 2400             	COMF	_ADC,0,0
00964 02BA 6600             	MVF	r0x1140,1,0
00965 02BB 2400             	COMF	(_ADC + 1),0,0
00966 02BC 6600             	MVF	r0x1141,1,0
00967 02BD 2400             	COMF	(_ADC + 2),0,0
00968 02BE 6600             	MVF	r0x1142,1,0
00969 02BF 2400             	COMF	(_ADC + 3),0,0
00970 02C0 6600             	MVF	r0x1143,1,0
00971 02C1 3A00             	INF	r0x1140,1,0
00972 02C2 0600             	MVL	0x00
00973 02C3 1600             	ADDC	r0x1141,1,0
00974 02C4 1600             	ADDC	r0x1142,1,0
00975 02C5 1600             	ADDC	r0x1143,1,0
00976 02C6                  _00182_DS_:
00977 02C6 0637             	MVL	0x37
00978 02C7 1000             	ADDF	r0x1140,0,0
00979 02C8 6600             	MVF	r0x1140,1,0
00980 02C9 06E7             	MVL	0xe7
00981 02CA 1400             	ADDC	r0x1141,0,0
00982 02CB C600 F000        	MVSF	r0x1140,(_adS + 18)
00983 02CD 6600             	MVF	(_adS + 19),1,0
00984                       ;	;.line	321; ".\ADC_LCD.c"	adS.minus_revise_flag=1;
00985 02CE 9800             	BSF	(_adS+6),4
00986 02CF C200 F000        	JMP	_00147_DS_
00987 02D1                  _00144_DS_:
00988                       ;	;.line	327; ".\ADC_LCD.c"	adS.p_offset_value= abs(STD_VALUE) -abs(ADC) + 1; 
00989 02D1 3000             	DCF	_ADC,0,0
00990 02D2 06FF             	MVL	0xff
00991 02D3 1400             	ADDC	(_ADC + 1),0,0
00992 02D4 06FF             	MVL	0xff
00993 02D5 1400             	ADDC	(_ADC + 2),0,0
00994 02D6 067F             	MVL	0x7f
00995 02D7 1400             	ADDC	(_ADC + 3),0,0
00996 02D8 B22B             	BTSS	_STATUS,1
00997 02D9 C200 F000        	JMP	_00183_DS_
00998 02DB 6400             	MVF	_ADC,0,0
00999 02DC 6600             	MVF	r0x1140,1,0
01000 02DD 6400             	MVF	(_ADC + 1),0,0
01001 02DE 6600             	MVF	r0x1141,1,0
01002 02DF C200 F000        	JMP	_00184_DS_
01003 02E1                  _00183_DS_:
01004 02E1 2400             	COMF	_ADC,0,0
01005 02E2 6600             	MVF	r0x1140,1,0
01006 02E3 2400             	COMF	(_ADC + 1),0,0
01007 02E4 6600             	MVF	r0x1141,1,0
01008 02E5 2400             	COMF	(_ADC + 2),0,0
01009 02E6 6600             	MVF	r0x1144,1,0
01010 02E7 2400             	COMF	(_ADC + 3),0,0
01011 02E8 6600             	MVF	r0x1145,1,0
01012 02E9 3A00             	INF	r0x1140,1,0
01013 02EA 0600             	MVL	0x00
01014 02EB 1600             	ADDC	r0x1141,1,0
01015 02EC 1600             	ADDC	r0x1144,1,0
01016 02ED 1600             	ADDC	r0x1145,1,0
01017 02EE                  _00184_DS_:
01018 02EE 2400             	COMF	r0x1140,0,0
01019 02EF 047E             	ADDL	0x7e
01020 02F0 6600             	MVF	r0x1140,1,0
01021 02F1 2600             	COMF	r0x1141,1,0
01022 02F2 0619             	MVL	0x19
01023 02F3 1600             	ADDC	r0x1141,1,0
01024 02F4 6400             	MVF	r0x1140,0,0
01025 02F5 6600             	MVF	(_adS + 20),1,0
01026 02F6 6400             	MVF	r0x1141,0,0
01027 02F7 6600             	MVF	(_adS + 21),1,0
01028                       ;	;.line	328; ".\ADC_LCD.c"	adS.plus_revise_flag =1;
01029 02F8 9600             	BSF	(_adS+6),3
01030                       ;	;.line	329; ".\ADC_LCD.c"	DisplayNum( adS.p_offset_value);
01031 02F9 0600             	MVL	0x00
01032 02FA AE00             	BTSZ	r0x1141,7
01033 02FB 06FF             	MVL	0xff
01034 02FC 6600             	MVF	r0x1149,1,0
01035 02FD 6600             	MVF	r0x1148,1,0
01036 02FE 6400             	MVF	r0x1140,0,0
01037 02FF 6600             	MVF	_DisplayNum_STK02,1,0
01038 0300 6400             	MVF	r0x1141,0,0
01039 0301 6600             	MVF	_DisplayNum_STK01,1,0
01040 0302 6400             	MVF	r0x1148,0,0
01041 0303 6600             	MVF	_DisplayNum_STK00,1,0
01042 0304 6400             	MVF	r0x1149,0,0
01043 0305 C000 F000        	CALL	_DisplayNum
01044                       	.CHKPARA _DisplayNum 4
01045                       ;	;.line	330; ".\ADC_LCD.c"	Delay(20000);
01046 0307 0620             	MVL	0x20
01047 0308 6600             	MVF	_Delay_STK00,1,0
01048 0309 064E             	MVL	0x4e
01049 030A C000 F000        	CALL	_Delay
01050                       	.CHKPARA _Delay 2
01051 030C                  _00147_DS_:
01052                       ;	;.line	336; ".\ADC_LCD.c"	if(adS.unit_setMode ==1){
01053 030C B200             	BTSS	_adS,1
01054 030D C200 F000        	JMP	_00173_DS_
01055                       ;	;.line	338; ".\ADC_LCD.c"	adS.unit_setMode =0 ;
01056 030F 8200             	BCF	_adS,1
01057                       ;	;.line	339; ".\ADC_LCD.c"	adS.testMode = 0;
01058 0310 8000             	BCF	(_adS+3),0
01059                       ;	;.line	343; ".\ADC_LCD.c"	HY17P52WR3(0,0xAA,0x02);	//addr=00,BIE_DataH=0xAA,BIE_DataL=0x11
01060 0311 0602             	MVL	0x02
01061 0312 6600             	MVF	_HY17P52WR3_STK01,1,0
01062 0313 06AA             	MVL	0xaa
01063 0314 6600             	MVF	_HY17P52WR3_STK00,1,0
01064 0315 0600             	MVL	0x00
01065 0316 C000 F000        	CALL	_HY17P52WR3
01066                       	.CHKPARA _HY17P52WR3 3
01067                       ;	;.line	344; ".\ADC_LCD.c"	if(Flag== 1)
01068 0318 3400             	DCSZ	_Flag,0,0
01069 0319 C200 F000        	JMP	_00152_DS_
01070                       ;	;.line	346; ".\ADC_LCD.c"	GPIO_PT16_HIGH();
01071 031B 06BF             	MVL	0xbf
01072 031C 2847             	ANDF	_PT1,0,0
01073 031D 0240             	IORL	0x40
01074 031E 6647             	MVF	_PT1,1,0
01075 031F                  _00149_DS_:
01076                       ;	;.line	347; ".\ADC_LCD.c"	while(1);    //fail
01077 031F C200 F000        	JMP	_00149_DS_
01078 0321                  _00152_DS_:
01079                       ;	;.line	351; ".\ADC_LCD.c"	BIEARL=0;                                //addr=0
01080 0321 0C30             	CLRF	_BIEARL,0
01081                       ;	;.line	352; ".\ADC_LCD.c"	BIECN=BIECN | 0x01;              //BIE_DataH=0xAA,BIE_DataL=0x11
01082 0322 902E             	BSF	_BIECN,0
01083 0323                  _00153_DS_:
01084                       ;	;.line	353; ".\ADC_LCD.c"	while((BIECN& 0x01)==1); 
01085 0323 642E             	MVF	_BIECN,0,0
01086 0324 0101             	ANDL	0x01
01087 0325 6600             	MVF	r0x1140,1,0
01088 0326 3000             	DCF	r0x1140,0,0
01089 0327 4C29             	RRF	_WREG,0,0
01090 0328 A02B             	BTSZ	_STATUS,0
01091 0329 C200 F000        	JMP	_00153_DS_
01092                       ;	;.line	354; ".\ADC_LCD.c"	delta=BIEDRL;
01093 032B 6432             	MVF	_BIEDRL,0,0
01094 032C 6600             	MVF	r0x1140,1,0
01095                       ;	;.line	356; ".\ADC_LCD.c"	if(delta==0)  LCD_WriteData(&LCD4, seg_bar) ; 
01096 032D 0200             	IORL	0x00
01097 032E 6E29             	TFSZ	_WREG,0
01098 032F C200 F000        	JMP	_00165_DS_
01099 0331 0602             	MVL	0x02
01100 0332 6663             	MVF	_LCD4,1,0
01101 0333 C200 F000        	JMP	_00173_DS_
01102 0335                  _00165_DS_:
01103                       ;	;.line	357; ".\ADC_LCD.c"	else if(delta==1)LCD_WriteData(&LCD4, seg_kgf) ; 
01104 0335 3000             	DCF	r0x1140,0,0
01105 0336 6E29             	TFSZ	_WREG,0
01106 0337 C200 F000        	JMP	_00162_DS_
01107 0339 0601             	MVL	0x01
01108 033A 6663             	MVF	_LCD4,1,0
01109 033B C200 F000        	JMP	_00173_DS_
01110 033D                  _00162_DS_:
01111                       ;	;.line	358; ".\ADC_LCD.c"	else if(delta==2)LCD_WriteData(&LCD4, seg_mpa) ; 
01112 033D 6400             	MVF	r0x1140,0,0
01113 033E 0302             	XORL	0x02
01114 033F 6E29             	TFSZ	_WREG,0
01115 0340 C200 F000        	JMP	_00159_DS_
01116 0342 0608             	MVL	0x08
01117 0343 6663             	MVF	_LCD4,1,0
01118 0344 C200 F000        	JMP	_00173_DS_
01119 0346                  _00159_DS_:
01120                       ;	;.line	359; ".\ADC_LCD.c"	else if(delta==3)LCD_WriteData(&LCD4, seg_psi) ; 
01121 0346 6400             	MVF	r0x1140,0,0
01122 0347 0303             	XORL	0x03
01123 0348 6E29             	TFSZ	_WREG,0
01124 0349 C200 F000        	JMP	_00173_DS_
01125 034B 0604             	MVL	0x04
01126 034C 6663             	MVF	_LCD4,1,0
01127                       ;	;.line	370; ".\ADC_LCD.c"	}
01128 034D C200 F000        	JMP	_00173_DS_
01129 034F --              	.ENDFUNC	_main
01130                       ;--------------------------------------------------------
01131                       
01132                       .globl _SetupUnitAndZeroPoint_Mode
01133                       
01134                       ;--------------------------------------------------------
01135                       	.FUNC _SetupUnitAndZeroPoint_Mode:0:$C:_DisplayUnit:$C:_Delay\
01136 034F --              :$L:r0x11C1
01137                       ;--------------------------------------------------------
01138                       ;	;.line	815; ".\ADC_LCD.c"	adS.unit_setMode =1;
01139 034F                  _SetupUnitAndZeroPoint_Mode:	;Function start
01140 034F 9200             	BSF	_adS,1
01141                       ;	;.line	816; ".\ADC_LCD.c"	adS.zeroPoint_Mode =0;
01142 0350 8200             	BCF	(_adS+3),1
01143                       ;	;.line	817; ".\ADC_LCD.c"	adS.testMode =1;
01144 0351 9000             	BSF	(_adS+3),0
01145                       ;	;.line	818; ".\ADC_LCD.c"	DisplayUnit();
01146 0352 C000 F000        	CALL	_DisplayUnit
01147                       	.CHKPARA _DisplayUnit 0
01148                       ;	;.line	822; ".\ADC_LCD.c"	switch(adS.unitChoose){
01149 0354 6400             	MVF	(_adS + 2),0,0
01150 0355 6600             	MVF	r0x11C1,1,0
01151 0356 0604             	MVL	0x04
01152 0357 6A00             	CPSL	r0x11C1,0
01153 0358 C200 F000        	JMP	_00708_DS_
01154 035A 0600             	MVL	HIGHD2(_00714_DS_)
01155 035B 661A             	MVF	_PCLATH,1,0
01156 035C 0600             	MVL	D2(_00714_DS_)
01157 035D 1000             	ADDF	r0x11C1,0,0
01158 035E A82B             	BTSZ	_STATUS,4
01159 035F 3A1A             	INF	_PCLATH,1,0
01160 0360 661B             	MVF	_PCLATL,1,0
01161 0361                  _00714_DS_:
01162 0361 7800             	RJ	_00703_DS_
01163 0362 7800             	RJ	_00704_DS_
01164 0363 7800             	RJ	_00705_DS_
01165 0364 7800             	RJ	_00706_DS_
01166 0365                  _00703_DS_:
01167                       ;	;.line	824; ".\ADC_LCD.c"	adS.unitChoose++;
01168 0365 3800             	INF	r0x11C1,0,0
01169 0366 6600             	MVF	(_adS + 2),1,0
01170                       ;	;.line	825; ".\ADC_LCD.c"	adS.unitChoose = psi;
01171 0367 0C00             	CLRF	(_adS + 2),0
01172                       ;	;.line	828; ".\ADC_LCD.c"	GPIO_PT15_HIGH();
01173 0368 06DF             	MVL	0xdf
01174 0369 2847             	ANDF	_PT1,0,0
01175 036A 0220             	IORL	0x20
01176 036B 6647             	MVF	_PT1,1,0
01177                       ;	;.line	829; ".\ADC_LCD.c"	LCD_WriteData(&LCD4,seg_psi);
01178 036C 0604             	MVL	0x04
01179 036D 6663             	MVF	_LCD4,1,0
01180                       ;	;.line	830; ".\ADC_LCD.c"	Delay(20000);  
01181 036E 0620             	MVL	0x20
01182 036F 6600             	MVF	_Delay_STK00,1,0
01183 0370 064E             	MVL	0x4e
01184 0371 C000 F000        	CALL	_Delay
01185                       	.CHKPARA _Delay 2
01186                       ;	;.line	831; ".\ADC_LCD.c"	Delay(10000);
01187 0373 0610             	MVL	0x10
01188 0374 6600             	MVF	_Delay_STK00,1,0
01189 0375 0627             	MVL	0x27
01190 0376 C000 F000        	CALL	_Delay
01191                       	.CHKPARA _Delay 2
01192                       ;	;.line	832; ".\ADC_LCD.c"	break;
01193 0378 C200 F000        	JMP	_00708_DS_
01194 037A                  _00704_DS_:
01195                       ;	;.line	834; ".\ADC_LCD.c"	adS.unitChoose++;
01196 037A 3800             	INF	r0x11C1,0,0
01197 037B 6600             	MVF	(_adS + 2),1,0
01198                       ;	;.line	835; ".\ADC_LCD.c"	adS.unitChoose = bar;
01199 037C 0601             	MVL	0x01
01200 037D 6600             	MVF	(_adS + 2),1,0
01201                       ;	;.line	836; ".\ADC_LCD.c"	GPIO_PT15_LOW();
01202 037E 8A47             	BCF	_PT1,5
01203                       ;	;.line	838; ".\ADC_LCD.c"	LCD_WriteData(&LCD4,seg_bar);
01204 037F 0602             	MVL	0x02
01205 0380 6663             	MVF	_LCD4,1,0
01206                       ;	;.line	839; ".\ADC_LCD.c"	Delay(20000); 
01207 0381 0620             	MVL	0x20
01208 0382 6600             	MVF	_Delay_STK00,1,0
01209 0383 064E             	MVL	0x4e
01210 0384 C000 F000        	CALL	_Delay
01211                       	.CHKPARA _Delay 2
01212                       ;	;.line	840; ".\ADC_LCD.c"	Delay(10000);
01213 0386 0610             	MVL	0x10
01214 0387 6600             	MVF	_Delay_STK00,1,0
01215 0388 0627             	MVL	0x27
01216 0389 C000 F000        	CALL	_Delay
01217                       	.CHKPARA _Delay 2
01218                       ;	;.line	841; ".\ADC_LCD.c"	break;
01219 038B C200 F000        	JMP	_00708_DS_
01220 038D                  _00705_DS_:
01221                       ;	;.line	843; ".\ADC_LCD.c"	adS.unitChoose++;
01222 038D 3A00             	INF	r0x11C1,1,0
01223 038E 6400             	MVF	r0x11C1,0,0
01224 038F 6600             	MVF	(_adS + 2),1,0
01225                       ;	;.line	844; ".\ADC_LCD.c"	adS.unitChoose = kgf;
01226 0390 0602             	MVL	0x02
01227 0391 6600             	MVF	(_adS + 2),1,0
01228                       ;	;.line	845; ".\ADC_LCD.c"	GPIO_PT15_HIGH();
01229 0392 06DF             	MVL	0xdf
01230 0393 2847             	ANDF	_PT1,0,0
01231 0394 0220             	IORL	0x20
01232 0395 6647             	MVF	_PT1,1,0
01233                       ;	;.line	847; ".\ADC_LCD.c"	LCD_WriteData(&LCD4,seg_kgf);
01234 0396 0601             	MVL	0x01
01235 0397 6663             	MVF	_LCD4,1,0
01236                       ;	;.line	848; ".\ADC_LCD.c"	Delay(20000);
01237 0398 0620             	MVL	0x20
01238 0399 6600             	MVF	_Delay_STK00,1,0
01239 039A 064E             	MVL	0x4e
01240 039B C000 F000        	CALL	_Delay
01241                       	.CHKPARA _Delay 2
01242                       ;	;.line	849; ".\ADC_LCD.c"	Delay(10000);  
01243 039D 0610             	MVL	0x10
01244 039E 6600             	MVF	_Delay_STK00,1,0
01245 039F 0627             	MVL	0x27
01246 03A0 C000 F000        	CALL	_Delay
01247                       	.CHKPARA _Delay 2
01248                       ;	;.line	851; ".\ADC_LCD.c"	break;
01249 03A2 C200 F000        	JMP	_00708_DS_
01250 03A4                  _00706_DS_:
01251                       ;	;.line	853; ".\ADC_LCD.c"	adS.unitChoose=0;
01252 03A4 0C00             	CLRF	(_adS + 2),0
01253                       ;	;.line	854; ".\ADC_LCD.c"	adS.unitChoose = mpa;
01254 03A5 0603             	MVL	0x03
01255 03A6 6600             	MVF	(_adS + 2),1,0
01256                       ;	;.line	855; ".\ADC_LCD.c"	GPIO_PT15_LOW();
01257 03A7 8A47             	BCF	_PT1,5
01258                       ;	;.line	857; ".\ADC_LCD.c"	LCD_WriteData(&LCD4,seg_mpa);
01259 03A8 0608             	MVL	0x08
01260 03A9 6663             	MVF	_LCD4,1,0
01261                       ;	;.line	859; ".\ADC_LCD.c"	Delay(20000);
01262 03AA 0620             	MVL	0x20
01263 03AB 6600             	MVF	_Delay_STK00,1,0
01264 03AC 064E             	MVL	0x4e
01265 03AD C000 F000        	CALL	_Delay
01266                       	.CHKPARA _Delay 2
01267                       ;	;.line	860; ".\ADC_LCD.c"	Delay(10000);  
01268 03AF 0610             	MVL	0x10
01269 03B0 6600             	MVF	_Delay_STK00,1,0
01270 03B1 0627             	MVL	0x27
01271 03B2 C000 F000        	CALL	_Delay
01272                       	.CHKPARA _Delay 2
01273 03B4                  _00708_DS_:
01274                       ;	;.line	863; ".\ADC_LCD.c"	}
01275 03B4 000A             	RET	
01276                       ; exit point of _SetupUnitAndZeroPoint_Mode
01277 03B5 --              	.ENDFUNC	_SetupUnitAndZeroPoint_Mode
01278                       ;--------------------------------------------------------
01279                       
01280                       .globl _NegativePressureWorks_Mode
01281                       
01282                       ;--------------------------------------------------------
01283                       	.FUNC _NegativePressureWorks_Mode:0:$C:___slong2fs:$C:___fsmul:$C:___fssub:$C:___fs2slong\
01284                       :$C:_Reverse_Data:$C:_UnitConverter:$C:_DisplayNum:$C:_LowVoltageDisplay:$C:_Delay\
01285                       :$C:___fsadd\
01286                       :$L:r0x11AF:$L:r0x11B0:$L:r0x11B1:$L:r0x11B2:$L:r0x11B3\
01287                       :$L:r0x11B4:$L:r0x11B5:$L:r0x11B6:$L:r0x11B7:$L:r0x11B8\
01288                       :$L:r0x11B9:$L:r0x11BA:$L:r0x11BC:$L:r0x11BB:$L:r0x11BE\
01289 03B5 --              :$L:r0x11C0:$L:r0x11BF
01290                       ;--------------------------------------------------------
01291                       ;	;.line	732; ".\ADC_LCD.c"	adS.Pressure_sign =1;
01292 03B5                  _NegativePressureWorks_Mode:	;Function start
01293 03B5 9C00             	BSF	(_adS+6),6
01294                       ;	;.line	734; ".\ADC_LCD.c"	BIEARL=3;                                //addr=1
01295 03B6 0603             	MVL	0x03
01296 03B7 6630             	MVF	_BIEARL,1,0
01297                       ;	;.line	735; ".\ADC_LCD.c"	BIECN=BIECN | 0x01;              //BIE_DataH=0xAA,BIE_DataL=0x11
01298 03B8 902E             	BSF	_BIECN,0
01299 03B9                  _00624_DS_:
01300                       ;	;.line	736; ".\ADC_LCD.c"	while((BIECN& 0x01)==1); 
01301 03B9 642E             	MVF	_BIECN,0,0
01302 03BA 0101             	ANDL	0x01
01303 03BB 6600             	MVF	r0x11B3,1,0
01304 03BC 3000             	DCF	r0x11B3,0,0
01305 03BD A02B             	BTSZ	_STATUS,0
01306 03BE C200 F000        	JMP	_00624_DS_
01307                       ;	;.line	737; ".\ADC_LCD.c"	adS.eepromRead_NegativeDeltaLow_bit1=BIEDRL;
01308 03C0 6432             	MVF	_BIEDRL,0,0
01309 03C1 6600             	MVF	(_adS + 9),1,0
01310                       ;	;.line	740; ".\ADC_LCD.c"	BIEARL=4;                                //addr=1
01311 03C2 0604             	MVL	0x04
01312 03C3 6630             	MVF	_BIEARL,1,0
01313                       ;	;.line	741; ".\ADC_LCD.c"	BIECN=BIECN | 0x01;              //BIE_DataH=0xAA,BIE_DataL=0x11
01314 03C4 902E             	BSF	_BIECN,0
01315 03C5                  _00627_DS_:
01316                       ;	;.line	742; ".\ADC_LCD.c"	while((BIECN& 0x01)==1); 
01317 03C5 642E             	MVF	_BIECN,0,0
01318 03C6 0101             	ANDL	0x01
01319 03C7 6600             	MVF	r0x11B3,1,0
01320 03C8 3000             	DCF	r0x11B3,0,0
01321 03C9 A02B             	BTSZ	_STATUS,0
01322 03CA C200 F000        	JMP	_00627_DS_
01323                       ;	;.line	743; ".\ADC_LCD.c"	adS.eepromRead_NegativeDeltaLow_bit2=BIEDRL;
01324 03CC 6432             	MVF	_BIEDRL,0,0
01325 03CD 6600             	MVF	(_adS + 10),1,0
01326                       ;	;.line	745; ".\ADC_LCD.c"	if(adS.eepromRead_NegativeDeltaLow_bit1 ==0 ){
01327 03CE 6E00             	TFSZ	(_adS + 9),0
01328 03CF C200 F000        	JMP	_00631_DS_
01329                       ;	;.line	747; ".\ADC_LCD.c"	theta =abs(ADC) + adS.eepromRead_NegativeDeltaLow_bit2 ;
01330 03D1 3000             	DCF	_ADC,0,0
01331 03D2 06FF             	MVL	0xff
01332 03D3 1400             	ADDC	(_ADC + 1),0,0
01333 03D4 06FF             	MVL	0xff
01334 03D5 1400             	ADDC	(_ADC + 2),0,0
01335 03D6 067F             	MVL	0x7f
01336 03D7 1400             	ADDC	(_ADC + 3),0,0
01337 03D8 B22B             	BTSS	_STATUS,1
01338 03D9 C200 F000        	JMP	_00641_DS_
01339 03DB 6400             	MVF	_ADC,0,0
01340 03DC 6600             	MVF	r0x11B3,1,0
01341 03DD 6400             	MVF	(_ADC + 1),0,0
01342 03DE 6600             	MVF	r0x11B4,1,0
01343 03DF 6400             	MVF	(_ADC + 2),0,0
01344 03E0 6600             	MVF	r0x11B5,1,0
01345 03E1 6400             	MVF	(_ADC + 3),0,0
01346 03E2 6600             	MVF	r0x11B6,1,0
01347 03E3 C200 F000        	JMP	_00642_DS_
01348 03E5                  _00641_DS_:
01349 03E5 2400             	COMF	_ADC,0,0
01350 03E6 6600             	MVF	r0x11B3,1,0
01351 03E7 2400             	COMF	(_ADC + 1),0,0
01352 03E8 6600             	MVF	r0x11B4,1,0
01353 03E9 2400             	COMF	(_ADC + 2),0,0
01354 03EA 6600             	MVF	r0x11B5,1,0
01355 03EB 2400             	COMF	(_ADC + 3),0,0
01356 03EC 6600             	MVF	r0x11B6,1,0
01357 03ED 3A00             	INF	r0x11B3,1,0
01358 03EE 0600             	MVL	0x00
01359 03EF 1600             	ADDC	r0x11B4,1,0
01360 03F0 1600             	ADDC	r0x11B5,1,0
01361 03F1 1600             	ADDC	r0x11B6,1,0
01362 03F2                  _00642_DS_:
01363 03F2 0C00             	CLRF	r0x11BA,0
01364 03F3 0600             	MVL	0x00
01365 03F4 AE00             	BTSZ	r0x11BA,7
01366 03F5 06FF             	MVL	0xff
01367 03F6 6600             	MVF	r0x11BC,1,0
01368 03F7 6600             	MVF	r0x11BB,1,0
01369 03F8 6400             	MVF	(_adS + 10),0,0
01370 03F9 1200             	ADDF	r0x11B3,1,0
01371 03FA 6400             	MVF	r0x11BA,0,0
01372 03FB 1600             	ADDC	r0x11B4,1,0
01373 03FC 6400             	MVF	r0x11BB,0,0
01374 03FD 1600             	ADDC	r0x11B5,1,0
01375 03FE 6400             	MVF	r0x11BC,0,0
01376 03FF 1600             	ADDC	r0x11B6,1,0
01377 0400 C200 F000        	JMP	_00632_DS_
01378 0402                  _00631_DS_:
01379                       ;	;.line	751; ".\ADC_LCD.c"	theta =abs(ADC) - adS.eepromRead_NegativeDeltaLow_bit1 ;
01380 0402 3000             	DCF	_ADC,0,0
01381 0403 06FF             	MVL	0xff
01382 0404 1400             	ADDC	(_ADC + 1),0,0
01383 0405 06FF             	MVL	0xff
01384 0406 1400             	ADDC	(_ADC + 2),0,0
01385 0407 067F             	MVL	0x7f
01386 0408 1400             	ADDC	(_ADC + 3),0,0
01387 0409 B22B             	BTSS	_STATUS,1
01388 040A C200 F000        	JMP	_00643_DS_
01389 040C 6400             	MVF	_ADC,0,0
01390 040D 6600             	MVF	r0x11B7,1,0
01391 040E 6400             	MVF	(_ADC + 1),0,0
01392 040F 6600             	MVF	r0x11B8,1,0
01393 0410 6400             	MVF	(_ADC + 2),0,0
01394 0411 6600             	MVF	r0x11B9,1,0
01395 0412 6400             	MVF	(_ADC + 3),0,0
01396 0413 6600             	MVF	r0x11BA,1,0
01397 0414 C200 F000        	JMP	_00644_DS_
01398 0416                  _00643_DS_:
01399 0416 2400             	COMF	_ADC,0,0
01400 0417 6600             	MVF	r0x11B7,1,0
01401 0418 2400             	COMF	(_ADC + 1),0,0
01402 0419 6600             	MVF	r0x11B8,1,0
01403 041A 2400             	COMF	(_ADC + 2),0,0
01404 041B 6600             	MVF	r0x11B9,1,0
01405 041C 2400             	COMF	(_ADC + 3),0,0
01406 041D 6600             	MVF	r0x11BA,1,0
01407 041E 3A00             	INF	r0x11B7,1,0
01408 041F 0600             	MVL	0x00
01409 0420 1600             	ADDC	r0x11B8,1,0
01410 0421 1600             	ADDC	r0x11B9,1,0
01411 0422 1600             	ADDC	r0x11BA,1,0
01412 0423                  _00644_DS_:
01413 0423 0C00             	CLRF	r0x11BE,0
01414 0424 0600             	MVL	0x00
01415 0425 AE00             	BTSZ	r0x11BE,7
01416 0426 06FF             	MVL	0xff
01417 0427 6600             	MVF	r0x11C0,1,0
01418 0428 6600             	MVF	r0x11BF,1,0
01419 0429 6400             	MVF	(_adS + 9),0,0
01420 042A 1800             	SUBF	r0x11B7,0,0
01421 042B 6600             	MVF	r0x11B3,1,0
01422 042C 6400             	MVF	r0x11BE,0,0
01423 042D 1C00             	SUBC	r0x11B8,0,0
01424 042E 6600             	MVF	r0x11B4,1,0
01425 042F 6400             	MVF	r0x11BF,0,0
01426 0430 1C00             	SUBC	r0x11B9,0,0
01427 0431 6600             	MVF	r0x11B5,1,0
01428 0432 6400             	MVF	r0x11C0,0,0
01429 0433 1C00             	SUBC	r0x11BA,0,0
01430 0434 6600             	MVF	r0x11B6,1,0
01431 0435                  _00632_DS_:
01432                       ;	;.line	755; ".\ADC_LCD.c"	if(adS.minus_revise_flag==1){
01433 0435 B800             	BTSS	(_adS+6),4
01434 0436 C200 F000        	JMP	_00637_DS_
01435                       ;	;.line	758; ".\ADC_LCD.c"	if( omega >=0 ){
01436 0438 AE00             	BTSZ	(_ADC + 3),7
01437 0439 C200 F000        	JMP	_00634_DS_
01438                       ;	;.line	759; ".\ADC_LCD.c"	LCDDisplay= 200 - 0.126*theta ;//y = -0.0126x + 20.075
01439 043B 6400             	MVF	r0x11B3,0,0
01440 043C 6600             	MVF	___slong2fs_STK02,1,0
01441 043D 6400             	MVF	r0x11B4,0,0
01442 043E 6600             	MVF	___slong2fs_STK01,1,0
01443 043F 6400             	MVF	r0x11B5,0,0
01444 0440 6600             	MVF	___slong2fs_STK00,1,0
01445 0441 6400             	MVF	r0x11B6,0,0
01446 0442 C000 F000        	CALL	___slong2fs
01447                       	.CHKPARA ___slong2fs 4
01448 0444 6600             	MVF	r0x11B2,1,0
01449 0445 641E             	MVF	STK02,0,0
01450 0446 6600             	MVF	___fsmul_STK06,1,0
01451 0447 641F             	MVF	STK01,0,0
01452 0448 6600             	MVF	___fsmul_STK05,1,0
01453 0449 6420             	MVF	STK00,0,0
01454 044A 6600             	MVF	___fsmul_STK04,1,0
01455 044B 6400             	MVF	r0x11B2,0,0
01456 044C 6600             	MVF	___fsmul_STK03,1,0
01457 044D 0625             	MVL	0x25
01458 044E 6600             	MVF	___fsmul_STK02,1,0
01459 044F 0606             	MVL	0x06
01460 0450 6600             	MVF	___fsmul_STK01,1,0
01461 0451 0601             	MVL	0x01
01462 0452 6600             	MVF	___fsmul_STK00,1,0
01463 0453 063E             	MVL	0x3e
01464 0454 C000 F000        	CALL	___fsmul
01465                       	.CHKPARA ___fsmul 8
01466 0456 6600             	MVF	r0x11B2,1,0
01467 0457 641E             	MVF	STK02,0,0
01468 0458 6600             	MVF	___fssub_STK06,1,0
01469 0459 641F             	MVF	STK01,0,0
01470 045A 6600             	MVF	___fssub_STK05,1,0
01471 045B 6420             	MVF	STK00,0,0
01472 045C 6600             	MVF	___fssub_STK04,1,0
01473 045D 6400             	MVF	r0x11B2,0,0
01474 045E 6600             	MVF	___fssub_STK03,1,0
01475 045F 0C00             	CLRF	___fssub_STK02,0
01476 0460 0C00             	CLRF	___fssub_STK01,0
01477 0461 0648             	MVL	0x48
01478 0462 6600             	MVF	___fssub_STK00,1,0
01479 0463 0643             	MVL	0x43
01480 0464 C000 F000        	CALL	___fssub
01481                       	.CHKPARA ___fssub 8
01482 0466 6600             	MVF	r0x11B2,1,0
01483 0467 641E             	MVF	STK02,0,0
01484 0468 6600             	MVF	___fs2slong_STK02,1,0
01485 0469 641F             	MVF	STK01,0,0
01486 046A 6600             	MVF	___fs2slong_STK01,1,0
01487 046B 6420             	MVF	STK00,0,0
01488 046C 6600             	MVF	___fs2slong_STK00,1,0
01489 046D 6400             	MVF	r0x11B2,0,0
01490 046E C000 F000        	CALL	___fs2slong
01491                       	.CHKPARA ___fs2slong 4
01492 0470 6600             	MVF	r0x11B2,1,0
01493 0471 641E             	MVF	STK02,0,0
01494                       ;	;.line	760; ".\ADC_LCD.c"	LCDDisplay=Reverse_Data(LCDDisplay);
01495 0472 6600             	MVF	_Reverse_Data_STK02,1,0
01496 0473 641F             	MVF	STK01,0,0
01497 0474 6600             	MVF	_Reverse_Data_STK01,1,0
01498 0475 6420             	MVF	STK00,0,0
01499 0476 6600             	MVF	_Reverse_Data_STK00,1,0
01500 0477 6400             	MVF	r0x11B2,0,0
01501 0478 C000 F000        	CALL	_Reverse_Data
01502                       	.CHKPARA _Reverse_Data 4
01503 047A 6600             	MVF	r0x11B2,1,0
01504 047B 641E             	MVF	STK02,0,0
01505                       ;	;.line	761; ".\ADC_LCD.c"	LCDDisplay=UnitConverter(LCDDisplay);
01506 047C 6600             	MVF	_UnitConverter_STK02,1,0
01507 047D 641F             	MVF	STK01,0,0
01508 047E 6600             	MVF	_UnitConverter_STK01,1,0
01509 047F 6420             	MVF	STK00,0,0
01510 0480 6600             	MVF	_UnitConverter_STK00,1,0
01511 0481 6400             	MVF	r0x11B2,0,0
01512 0482 C000 F000        	CALL	_UnitConverter
01513 0484 6600             	MVF	r0x11B2,1,0
01514 0485 641E             	MVF	STK02,0,0
01515                       ;	;.line	762; ".\ADC_LCD.c"	DisplayNum(LCDDisplay);
01516 0486 6600             	MVF	_DisplayNum_STK02,1,0
01517 0487 641F             	MVF	STK01,0,0
01518 0488 6600             	MVF	_DisplayNum_STK01,1,0
01519 0489 6420             	MVF	STK00,0,0
01520 048A 6600             	MVF	_DisplayNum_STK00,1,0
01521 048B 6400             	MVF	r0x11B2,0,0
01522 048C C000 F000        	CALL	_DisplayNum
01523                       	.CHKPARA _DisplayNum 4
01524                       ;	;.line	763; ".\ADC_LCD.c"	LowVoltageDisplay();
01525 048E C000 F000        	CALL	_LowVoltageDisplay
01526                       ;	;.line	765; ".\ADC_LCD.c"	Delay(20000);
01527 0490 0620             	MVL	0x20
01528 0491 6600             	MVF	_Delay_STK00,1,0
01529 0492 064E             	MVL	0x4e
01530 0493 C000 F000        	CALL	_Delay
01531                       	.CHKPARA _Delay 2
01532 0495 C200 F000        	JMP	_00639_DS_
01533 0497                  _00634_DS_:
01534                       ;	;.line	776; ".\ADC_LCD.c"	LCDDisplay= 0.125*theta + 204; //y = 0.0125x + 19.849//y = 0.0125x + 19.854
01535 0497 6400             	MVF	r0x11B3,0,0
01536 0498 6600             	MVF	___slong2fs_STK02,1,0
01537 0499 6400             	MVF	r0x11B4,0,0
01538 049A 6600             	MVF	___slong2fs_STK01,1,0
01539 049B 6400             	MVF	r0x11B5,0,0
01540 049C 6600             	MVF	___slong2fs_STK00,1,0
01541 049D 6400             	MVF	r0x11B6,0,0
01542 049E C000 F000        	CALL	___slong2fs
01543                       	.CHKPARA ___slong2fs 4
01544 04A0 6600             	MVF	r0x11B2,1,0
01545 04A1 641E             	MVF	STK02,0,0
01546 04A2 6600             	MVF	___fsmul_STK06,1,0
01547 04A3 641F             	MVF	STK01,0,0
01548 04A4 6600             	MVF	___fsmul_STK05,1,0
01549 04A5 6420             	MVF	STK00,0,0
01550 04A6 6600             	MVF	___fsmul_STK04,1,0
01551 04A7 6400             	MVF	r0x11B2,0,0
01552 04A8 6600             	MVF	___fsmul_STK03,1,0
01553 04A9 0C00             	CLRF	___fsmul_STK02,0
01554 04AA 0C00             	CLRF	___fsmul_STK01,0
01555 04AB 0C00             	CLRF	___fsmul_STK00,0
01556 04AC 063E             	MVL	0x3e
01557 04AD C000 F000        	CALL	___fsmul
01558                       	.CHKPARA ___fsmul 8
01559 04AF 6600             	MVF	r0x11B2,1,0
01560 04B0 0C00             	CLRF	___fsadd_STK06,0
01561 04B1 0C00             	CLRF	___fsadd_STK05,0
01562 04B2 064C             	MVL	0x4c
01563 04B3 6600             	MVF	___fsadd_STK04,1,0
01564 04B4 0643             	MVL	0x43
01565 04B5 6600             	MVF	___fsadd_STK03,1,0
01566 04B6 641E             	MVF	STK02,0,0
01567 04B7 6600             	MVF	___fsadd_STK02,1,0
01568 04B8 641F             	MVF	STK01,0,0
01569 04B9 6600             	MVF	___fsadd_STK01,1,0
01570 04BA 6420             	MVF	STK00,0,0
01571 04BB 6600             	MVF	___fsadd_STK00,1,0
01572 04BC 6400             	MVF	r0x11B2,0,0
01573 04BD C000 F000        	CALL	___fsadd
01574                       	.CHKPARA ___fsadd 8
01575 04BF 6600             	MVF	r0x11B2,1,0
01576 04C0 641E             	MVF	STK02,0,0
01577 04C1 6600             	MVF	___fs2slong_STK02,1,0
01578 04C2 641F             	MVF	STK01,0,0
01579 04C3 6600             	MVF	___fs2slong_STK01,1,0
01580 04C4 6420             	MVF	STK00,0,0
01581 04C5 6600             	MVF	___fs2slong_STK00,1,0
01582 04C6 6400             	MVF	r0x11B2,0,0
01583 04C7 C000 F000        	CALL	___fs2slong
01584                       	.CHKPARA ___fs2slong 4
01585 04C9 6600             	MVF	r0x11B2,1,0
01586 04CA 641E             	MVF	STK02,0,0
01587                       ;	;.line	777; ".\ADC_LCD.c"	LCDDisplay=Reverse_Data(LCDDisplay);
01588 04CB 6600             	MVF	_Reverse_Data_STK02,1,0
01589 04CC 641F             	MVF	STK01,0,0
01590 04CD 6600             	MVF	_Reverse_Data_STK01,1,0
01591 04CE 6420             	MVF	STK00,0,0
01592 04CF 6600             	MVF	_Reverse_Data_STK00,1,0
01593 04D0 6400             	MVF	r0x11B2,0,0
01594 04D1 C000 F000        	CALL	_Reverse_Data
01595                       	.CHKPARA _Reverse_Data 4
01596 04D3 6600             	MVF	r0x11B2,1,0
01597 04D4 641E             	MVF	STK02,0,0
01598                       ;	;.line	778; ".\ADC_LCD.c"	LCDDisplay=UnitConverter(LCDDisplay);
01599 04D5 6600             	MVF	_UnitConverter_STK02,1,0
01600 04D6 641F             	MVF	STK01,0,0
01601 04D7 6600             	MVF	_UnitConverter_STK01,1,0
01602 04D8 6420             	MVF	STK00,0,0
01603 04D9 6600             	MVF	_UnitConverter_STK00,1,0
01604 04DA 6400             	MVF	r0x11B2,0,0
01605 04DB C000 F000        	CALL	_UnitConverter
01606 04DD 6600             	MVF	r0x11B2,1,0
01607 04DE 641E             	MVF	STK02,0,0
01608                       ;	;.line	779; ".\ADC_LCD.c"	DisplayNum( LCDDisplay);
01609 04DF 6600             	MVF	_DisplayNum_STK02,1,0
01610 04E0 641F             	MVF	STK01,0,0
01611 04E1 6600             	MVF	_DisplayNum_STK01,1,0
01612 04E2 6420             	MVF	STK00,0,0
01613 04E3 6600             	MVF	_DisplayNum_STK00,1,0
01614 04E4 6400             	MVF	r0x11B2,0,0
01615 04E5 C000 F000        	CALL	_DisplayNum
01616                       	.CHKPARA _DisplayNum 4
01617                       ;	;.line	780; ".\ADC_LCD.c"	LowVoltageDisplay();
01618 04E7 C000 F000        	CALL	_LowVoltageDisplay
01619                       ;	;.line	782; ".\ADC_LCD.c"	Delay(20000);
01620 04E9 0620             	MVL	0x20
01621 04EA 6600             	MVF	_Delay_STK00,1,0
01622 04EB 064E             	MVL	0x4e
01623 04EC C000 F000        	CALL	_Delay
01624                       	.CHKPARA _Delay 2
01625 04EE C200 F000        	JMP	_00639_DS_
01626 04F0                  _00637_DS_:
01627                       ;	;.line	788; ".\ADC_LCD.c"	ADC = abs(ADC);
01628 04F0 3000             	DCF	_ADC,0,0
01629 04F1 06FF             	MVL	0xff
01630 04F2 1400             	ADDC	(_ADC + 1),0,0
01631 04F3 06FF             	MVL	0xff
01632 04F4 1400             	ADDC	(_ADC + 2),0,0
01633 04F5 067F             	MVL	0x7f
01634 04F6 1400             	ADDC	(_ADC + 3),0,0
01635 04F7 B22B             	BTSS	_STATUS,1
01636 04F8 C200 F000        	JMP	_00645_DS_
01637 04FA 6400             	MVF	_ADC,0,0
01638 04FB 6600             	MVF	r0x11AF,1,0
01639 04FC 6400             	MVF	(_ADC + 1),0,0
01640 04FD 6600             	MVF	r0x11B0,1,0
01641 04FE 6400             	MVF	(_ADC + 2),0,0
01642 04FF 6600             	MVF	r0x11B1,1,0
01643 0500 6400             	MVF	(_ADC + 3),0,0
01644 0501 6600             	MVF	r0x11B2,1,0
01645 0502 C200 F000        	JMP	_00646_DS_
01646 0504                  _00645_DS_:
01647 0504 2400             	COMF	_ADC,0,0
01648 0505 6600             	MVF	r0x11AF,1,0
01649 0506 2400             	COMF	(_ADC + 1),0,0
01650 0507 6600             	MVF	r0x11B0,1,0
01651 0508 2400             	COMF	(_ADC + 2),0,0
01652 0509 6600             	MVF	r0x11B1,1,0
01653 050A 2400             	COMF	(_ADC + 3),0,0
01654 050B 6600             	MVF	r0x11B2,1,0
01655 050C 3A00             	INF	r0x11AF,1,0
01656 050D 0600             	MVL	0x00
01657 050E 1600             	ADDC	r0x11B0,1,0
01658 050F 1600             	ADDC	r0x11B1,1,0
01659 0510 1600             	ADDC	r0x11B2,1,0
01660 0511                  _00646_DS_:
01661 0511 6400             	MVF	r0x11AF,0,0
01662 0512 6600             	MVF	_ADC,1,0
01663 0513 6400             	MVF	r0x11B0,0,0
01664 0514 6600             	MVF	(_ADC + 1),1,0
01665 0515 6400             	MVF	r0x11B1,0,0
01666 0516 6600             	MVF	(_ADC + 2),1,0
01667 0517 6400             	MVF	r0x11B2,0,0
01668 0518 6600             	MVF	(_ADC + 3),1,0
01669                       ;	;.line	789; ".\ADC_LCD.c"	ADC=Reverse_Data(ADC);
01670 0519 6400             	MVF	_ADC,0,0
01671 051A 6600             	MVF	_Reverse_Data_STK02,1,0
01672 051B 6400             	MVF	(_ADC + 1),0,0
01673 051C 6600             	MVF	_Reverse_Data_STK01,1,0
01674 051D 6400             	MVF	(_ADC + 2),0,0
01675 051E 6600             	MVF	_Reverse_Data_STK00,1,0
01676 051F 6400             	MVF	(_ADC + 3),0,0
01677 0520 C000 F000        	CALL	_Reverse_Data
01678                       	.CHKPARA _Reverse_Data 4
01679 0522 6600             	MVF	(_ADC + 3),1,0
01680 0523 6420             	MVF	STK00,0,0
01681 0524 6600             	MVF	(_ADC + 2),1,0
01682 0525 641F             	MVF	STK01,0,0
01683 0526 6600             	MVF	(_ADC + 1),1,0
01684 0527 641E             	MVF	STK02,0,0
01685 0528 6600             	MVF	_ADC,1,0
01686                       ;	;.line	790; ".\ADC_LCD.c"	DisplayNum(ADC);
01687 0529 6600             	MVF	_DisplayNum_STK02,1,0
01688 052A 6400             	MVF	(_ADC + 1),0,0
01689 052B 6600             	MVF	_DisplayNum_STK01,1,0
01690 052C 6400             	MVF	(_ADC + 2),0,0
01691 052D 6600             	MVF	_DisplayNum_STK00,1,0
01692 052E 6400             	MVF	(_ADC + 3),0,0
01693 052F C000 F000        	CALL	_DisplayNum
01694                       	.CHKPARA _DisplayNum 4
01695                       ;	;.line	791; ".\ADC_LCD.c"	LowVoltageDisplay();
01696 0531 C000 F000        	CALL	_LowVoltageDisplay
01697                       ;	;.line	793; ".\ADC_LCD.c"	Delay(20000);
01698 0533 0620             	MVL	0x20
01699 0534 6600             	MVF	_Delay_STK00,1,0
01700 0535 064E             	MVL	0x4e
01701 0536 C000 F000        	CALL	_Delay
01702                       	.CHKPARA _Delay 2
01703 0538                  _00639_DS_:
01704                       ;	;.line	798; ".\ADC_LCD.c"	}
01705 0538 000A             	RET	
01706                       ; exit point of _NegativePressureWorks_Mode
01707 0539 --              	.ENDFUNC	_NegativePressureWorks_Mode
01708                       ;--------------------------------------------------------
01709                       
01710                       .globl _PositivePressureWorks_Mode
01711                       
01712                       ;--------------------------------------------------------
01713                       	.FUNC _PositivePressureWorks_Mode:0:$C:___slong2fs:$C:___fsmul:$C:___fssub:$C:___fs2slong\
01714                       :$C:_DisplayNum:$C:__mullong:$C:_Reverse_Data:$C:_UnitConverter:$C:_LowVoltageDisplay\
01715                       :$C:_Delay\
01716                       :$L:r0x1197:$L:r0x1198:$L:r0x1199:$L:r0x119A:$L:r0x119B\
01717                       :$L:r0x119C:$L:r0x119D:$L:r0x119E:$L:r0x11A0:$L:r0x119F\
01718 0539 --              :$L:r0x11A2:$L:r0x11A4:$L:r0x11A3
01719                       ;--------------------------------------------------------
01720                       ;	;.line	657; ".\ADC_LCD.c"	BIEARL=1;                                //addr=1
01721 0539                  _PositivePressureWorks_Mode:	;Function start
01722 0539 0601             	MVL	0x01
01723 053A 6630             	MVF	_BIEARL,1,0
01724                       ;	;.line	658; ".\ADC_LCD.c"	BIECN=BIECN | 0x01;              //BIE_DataH=0xAA,BIE_DataL=0x11
01725 053B 902E             	BSF	_BIECN,0
01726 053C                  _00544_DS_:
01727                       ;	;.line	659; ".\ADC_LCD.c"	while((BIECN& 0x01)==1); 
01728 053C 642E             	MVF	_BIECN,0,0
01729 053D 0101             	ANDL	0x01
01730 053E 6600             	MVF	r0x1197,1,0
01731 053F 3000             	DCF	r0x1197,0,0
01732 0540 A02B             	BTSZ	_STATUS,0
01733 0541 C200 F000        	JMP	_00544_DS_
01734                       ;	;.line	660; ".\ADC_LCD.c"	adS.eepromRead_PositiveDeltaLow_bit1=BIEDRL;
01735 0543 6432             	MVF	_BIEDRL,0,0
01736 0544 6600             	MVF	(_adS + 7),1,0
01737                       ;	;.line	663; ".\ADC_LCD.c"	BIEARL=2;                                //addr=1
01738 0545 0602             	MVL	0x02
01739 0546 6630             	MVF	_BIEARL,1,0
01740                       ;	;.line	664; ".\ADC_LCD.c"	BIECN=BIECN | 0x01;              //BIE_DataH=0xAA,BIE_DataL=0x11
01741 0547 902E             	BSF	_BIECN,0
01742 0548                  _00547_DS_:
01743                       ;	;.line	665; ".\ADC_LCD.c"	while((BIECN& 0x01)==1); 
01744 0548 642E             	MVF	_BIECN,0,0
01745 0549 0101             	ANDL	0x01
01746 054A 6600             	MVF	r0x1197,1,0
01747 054B 3000             	DCF	r0x1197,0,0
01748 054C A02B             	BTSZ	_STATUS,0
01749 054D C200 F000        	JMP	_00547_DS_
01750                       ;	;.line	666; ".\ADC_LCD.c"	adS.eepromRead_PositiveDeltaLow_bit2=BIEDRL;
01751 054F 6432             	MVF	_BIEDRL,0,0
01752 0550 6600             	MVF	(_adS + 8),1,0
01753                       ;	;.line	668; ".\ADC_LCD.c"	if(adS.eepromRead_PositiveDeltaLow_bit1 ==0 ){
01754 0551 6E00             	TFSZ	(_adS + 7),0
01755 0552 C200 F000        	JMP	_00551_DS_
01756                       ;	;.line	670; ".\ADC_LCD.c"	delta =abs(ADC) + adS.eepromRead_PositiveDeltaLow_bit2 ;
01757 0554 3000             	DCF	_ADC,0,0
01758 0555 06FF             	MVL	0xff
01759 0556 1400             	ADDC	(_ADC + 1),0,0
01760 0557 06FF             	MVL	0xff
01761 0558 1400             	ADDC	(_ADC + 2),0,0
01762 0559 067F             	MVL	0x7f
01763 055A 1400             	ADDC	(_ADC + 3),0,0
01764 055B B22B             	BTSS	_STATUS,1
01765 055C C200 F000        	JMP	_00564_DS_
01766 055E 6400             	MVF	_ADC,0,0
01767 055F 6600             	MVF	r0x1197,1,0
01768 0560 6400             	MVF	(_ADC + 1),0,0
01769 0561 6600             	MVF	r0x1198,1,0
01770 0562 6400             	MVF	(_ADC + 2),0,0
01771 0563 6600             	MVF	r0x1199,1,0
01772 0564 6400             	MVF	(_ADC + 3),0,0
01773 0565 6600             	MVF	r0x119A,1,0
01774 0566 C200 F000        	JMP	_00565_DS_
01775 0568                  _00564_DS_:
01776 0568 2400             	COMF	_ADC,0,0
01777 0569 6600             	MVF	r0x1197,1,0
01778 056A 2400             	COMF	(_ADC + 1),0,0
01779 056B 6600             	MVF	r0x1198,1,0
01780 056C 2400             	COMF	(_ADC + 2),0,0
01781 056D 6600             	MVF	r0x1199,1,0
01782 056E 2400             	COMF	(_ADC + 3),0,0
01783 056F 6600             	MVF	r0x119A,1,0
01784 0570 3A00             	INF	r0x1197,1,0
01785 0571 0600             	MVL	0x00
01786 0572 1600             	ADDC	r0x1198,1,0
01787 0573 1600             	ADDC	r0x1199,1,0
01788 0574 1600             	ADDC	r0x119A,1,0
01789 0575                  _00565_DS_:
01790 0575 0C00             	CLRF	r0x119E,0
01791 0576 0600             	MVL	0x00
01792 0577 AE00             	BTSZ	r0x119E,7
01793 0578 06FF             	MVL	0xff
01794 0579 6600             	MVF	r0x11A0,1,0
01795 057A 6600             	MVF	r0x119F,1,0
01796 057B 6400             	MVF	(_adS + 8),0,0
01797 057C 1200             	ADDF	r0x1197,1,0
01798 057D 6400             	MVF	r0x119E,0,0
01799 057E 1600             	ADDC	r0x1198,1,0
01800 057F 6400             	MVF	r0x119F,0,0
01801 0580 1600             	ADDC	r0x1199,1,0
01802 0581 6400             	MVF	r0x11A0,0,0
01803 0582 1600             	ADDC	r0x119A,1,0
01804 0583 C200 F000        	JMP	_00552_DS_
01805 0585                  _00551_DS_:
01806                       ;	;.line	674; ".\ADC_LCD.c"	delta =abs(ADC) - adS.eepromRead_PositiveDeltaLow_bit1 ;
01807 0585 3000             	DCF	_ADC,0,0
01808 0586 06FF             	MVL	0xff
01809 0587 1400             	ADDC	(_ADC + 1),0,0
01810 0588 06FF             	MVL	0xff
01811 0589 1400             	ADDC	(_ADC + 2),0,0
01812 058A 067F             	MVL	0x7f
01813 058B 1400             	ADDC	(_ADC + 3),0,0
01814 058C B22B             	BTSS	_STATUS,1
01815 058D C200 F000        	JMP	_00566_DS_
01816 058F 6400             	MVF	_ADC,0,0
01817 0590 6600             	MVF	r0x119B,1,0
01818 0591 6400             	MVF	(_ADC + 1),0,0
01819 0592 6600             	MVF	r0x119C,1,0
01820 0593 6400             	MVF	(_ADC + 2),0,0
01821 0594 6600             	MVF	r0x119D,1,0
01822 0595 6400             	MVF	(_ADC + 3),0,0
01823 0596 6600             	MVF	r0x119E,1,0
01824 0597 C200 F000        	JMP	_00567_DS_
01825 0599                  _00566_DS_:
01826 0599 2400             	COMF	_ADC,0,0
01827 059A 6600             	MVF	r0x119B,1,0
01828 059B 2400             	COMF	(_ADC + 1),0,0
01829 059C 6600             	MVF	r0x119C,1,0
01830 059D 2400             	COMF	(_ADC + 2),0,0
01831 059E 6600             	MVF	r0x119D,1,0
01832 059F 2400             	COMF	(_ADC + 3),0,0
01833 05A0 6600             	MVF	r0x119E,1,0
01834 05A1 3A00             	INF	r0x119B,1,0
01835 05A2 0600             	MVL	0x00
01836 05A3 1600             	ADDC	r0x119C,1,0
01837 05A4 1600             	ADDC	r0x119D,1,0
01838 05A5 1600             	ADDC	r0x119E,1,0
01839 05A6                  _00567_DS_:
01840 05A6 0C00             	CLRF	r0x11A2,0
01841 05A7 0600             	MVL	0x00
01842 05A8 AE00             	BTSZ	r0x11A2,7
01843 05A9 06FF             	MVL	0xff
01844 05AA 6600             	MVF	r0x11A4,1,0
01845 05AB 6600             	MVF	r0x11A3,1,0
01846 05AC 6400             	MVF	(_adS + 7),0,0
01847 05AD 1800             	SUBF	r0x119B,0,0
01848 05AE 6600             	MVF	r0x1197,1,0
01849 05AF 6400             	MVF	r0x11A2,0,0
01850 05B0 1C00             	SUBC	r0x119C,0,0
01851 05B1 6600             	MVF	r0x1198,1,0
01852 05B2 6400             	MVF	r0x11A3,0,0
01853 05B3 1C00             	SUBC	r0x119D,0,0
01854 05B4 6600             	MVF	r0x1199,1,0
01855 05B5 6400             	MVF	r0x11A4,0,0
01856 05B6 1C00             	SUBC	r0x119E,0,0
01857 05B7 6600             	MVF	r0x119A,1,0
01858 05B8                  _00552_DS_:
01859                       ;	;.line	677; ".\ADC_LCD.c"	LCDDisplay= (0.1 * delta)-364 ;  //y = 0.0175x - 36.495  //= 0.0175x - 36.495 
01860 05B8 6400             	MVF	r0x1197,0,0
01861 05B9 6600             	MVF	___slong2fs_STK02,1,0
01862 05BA 6400             	MVF	r0x1198,0,0
01863 05BB 6600             	MVF	___slong2fs_STK01,1,0
01864 05BC 6400             	MVF	r0x1199,0,0
01865 05BD 6600             	MVF	___slong2fs_STK00,1,0
01866 05BE 6400             	MVF	r0x119A,0,0
01867 05BF C000 F000        	CALL	___slong2fs
01868                       	.CHKPARA ___slong2fs 4
01869 05C1 6600             	MVF	r0x119E,1,0
01870 05C2 6420             	MVF	STK00,0,0
01871 05C3 6600             	MVF	r0x119D,1,0
01872 05C4 641F             	MVF	STK01,0,0
01873 05C5 6600             	MVF	r0x119C,1,0
01874 05C6 641E             	MVF	STK02,0,0
01875 05C7 6600             	MVF	r0x119B,1,0
01876 05C8 6600             	MVF	___fsmul_STK06,1,0
01877 05C9 6400             	MVF	r0x119C,0,0
01878 05CA 6600             	MVF	___fsmul_STK05,1,0
01879 05CB 6400             	MVF	r0x119D,0,0
01880 05CC 6600             	MVF	___fsmul_STK04,1,0
01881 05CD 6400             	MVF	r0x119E,0,0
01882 05CE 6600             	MVF	___fsmul_STK03,1,0
01883 05CF 06CD             	MVL	0xcd
01884 05D0 6600             	MVF	___fsmul_STK02,1,0
01885 05D1 06CC             	MVL	0xcc
01886 05D2 6600             	MVF	___fsmul_STK01,1,0
01887 05D3 6600             	MVF	___fsmul_STK00,1,0
01888 05D4 063D             	MVL	0x3d
01889 05D5 C000 F000        	CALL	___fsmul
01890                       	.CHKPARA ___fsmul 8
01891 05D7 6600             	MVF	r0x11A2,1,0
01892 05D8 0C00             	CLRF	___fssub_STK06,0
01893 05D9 0C00             	CLRF	___fssub_STK05,0
01894 05DA 06B6             	MVL	0xb6
01895 05DB 6600             	MVF	___fssub_STK04,1,0
01896 05DC 0643             	MVL	0x43
01897 05DD 6600             	MVF	___fssub_STK03,1,0
01898 05DE 641E             	MVF	STK02,0,0
01899 05DF 6600             	MVF	___fssub_STK02,1,0
01900 05E0 641F             	MVF	STK01,0,0
01901 05E1 6600             	MVF	___fssub_STK01,1,0
01902 05E2 6420             	MVF	STK00,0,0
01903 05E3 6600             	MVF	___fssub_STK00,1,0
01904 05E4 6400             	MVF	r0x11A2,0,0
01905 05E5 C000 F000        	CALL	___fssub
01906                       	.CHKPARA ___fssub 8
01907 05E7 6600             	MVF	r0x11A2,1,0
01908 05E8 641E             	MVF	STK02,0,0
01909 05E9 6600             	MVF	___fs2slong_STK02,1,0
01910 05EA 641F             	MVF	STK01,0,0
01911 05EB 6600             	MVF	___fs2slong_STK01,1,0
01912 05EC 6420             	MVF	STK00,0,0
01913 05ED 6600             	MVF	___fs2slong_STK00,1,0
01914 05EE 6400             	MVF	r0x11A2,0,0
01915 05EF C000 F000        	CALL	___fs2slong
01916                       	.CHKPARA ___fs2slong 4
01917 05F1 6600             	MVF	r0x11A2,1,0
01918                       ;	;.line	679; ".\ADC_LCD.c"	if(adS.plus_revise_flag ==1){
01919 05F2 B600             	BTSS	(_adS+6),3
01920 05F3 C200 F000        	JMP	_00560_DS_
01921                       ;	;.line	681; ".\ADC_LCD.c"	if(delta<2000)DisplayNum(ADC);
01922 05F5 0630             	MVL	0x30
01923 05F6 1000             	ADDF	r0x1197,0,0
01924 05F7 06F8             	MVL	0xf8
01925 05F8 1400             	ADDC	r0x1198,0,0
01926 05F9 06FF             	MVL	0xff
01927 05FA 1400             	ADDC	r0x1199,0,0
01928 05FB 067F             	MVL	0x7f
01929 05FC 1400             	ADDC	r0x119A,0,0
01930 05FD A22B             	BTSZ	_STATUS,1
01931 05FE C200 F000        	JMP	_00557_DS_
01932 0600 6400             	MVF	_ADC,0,0
01933 0601 6600             	MVF	_DisplayNum_STK02,1,0
01934 0602 6400             	MVF	(_ADC + 1),0,0
01935 0603 6600             	MVF	_DisplayNum_STK01,1,0
01936 0604 6400             	MVF	(_ADC + 2),0,0
01937 0605 6600             	MVF	_DisplayNum_STK00,1,0
01938 0606 6400             	MVF	(_ADC + 3),0,0
01939 0607 C000 F000        	CALL	_DisplayNum
01940                       	.CHKPARA _DisplayNum 4
01941 0609 C200 F000        	JMP	_00562_DS_
01942 060B                  _00557_DS_:
01943                       ;	;.line	683; ".\ADC_LCD.c"	else if( (LCDDisplay *10) < 2875){
01944 060B 641E             	MVF	STK02,0,0
01945 060C 6600             	MVF	__mullong_STK06,1,0
01946 060D 641F             	MVF	STK01,0,0
01947 060E 6600             	MVF	__mullong_STK05,1,0
01948 060F 6420             	MVF	STK00,0,0
01949 0610 6600             	MVF	__mullong_STK04,1,0
01950 0611 6400             	MVF	r0x11A2,0,0
01951 0612 6600             	MVF	__mullong_STK03,1,0
01952 0613 060A             	MVL	0x0a
01953 0614 6600             	MVF	__mullong_STK02,1,0
01954 0615 0C00             	CLRF	__mullong_STK01,0
01955 0616 0C00             	CLRF	__mullong_STK00,0
01956 0617 0600             	MVL	0x00
01957 0618 C000 F000        	CALL	__mullong
01958                       	.CHKPARA __mullong 8
01959 061A 6600             	MVF	r0x119A,1,0
01960 061B 641E             	MVF	STK02,0,0
01961 061C 04C5             	ADDL	0xc5
01962 061D 06F4             	MVL	0xf4
01963 061E 141F             	ADDC	STK01,0,0
01964 061F 06FF             	MVL	0xff
01965 0620 1420             	ADDC	STK00,0,0
01966 0621 067F             	MVL	0x7f
01967 0622 1400             	ADDC	r0x119A,0,0
01968 0623 A22B             	BTSZ	_STATUS,1
01969 0624 C200 F000        	JMP	_00554_DS_
01970                       ;	;.line	684; ".\ADC_LCD.c"	LCDDisplay= 0.125 *delta- 202.86; //y = 0.0125x - 20.286
01971 0626 6400             	MVF	r0x119B,0,0
01972 0627 6600             	MVF	___fsmul_STK06,1,0
01973 0628 6400             	MVF	r0x119C,0,0
01974 0629 6600             	MVF	___fsmul_STK05,1,0
01975 062A 6400             	MVF	r0x119D,0,0
01976 062B 6600             	MVF	___fsmul_STK04,1,0
01977 062C 6400             	MVF	r0x119E,0,0
01978 062D 6600             	MVF	___fsmul_STK03,1,0
01979 062E 0C00             	CLRF	___fsmul_STK02,0
01980 062F 0C00             	CLRF	___fsmul_STK01,0
01981 0630 0C00             	CLRF	___fsmul_STK00,0
01982 0631 063E             	MVL	0x3e
01983 0632 C000 F000        	CALL	___fsmul
01984                       	.CHKPARA ___fsmul 8
01985 0634 6600             	MVF	r0x119A,1,0
01986 0635 0629             	MVL	0x29
01987 0636 6600             	MVF	___fssub_STK06,1,0
01988 0637 06DC             	MVL	0xdc
01989 0638 6600             	MVF	___fssub_STK05,1,0
01990 0639 064A             	MVL	0x4a
01991 063A 6600             	MVF	___fssub_STK04,1,0
01992 063B 0643             	MVL	0x43
01993 063C 6600             	MVF	___fssub_STK03,1,0
01994 063D 641E             	MVF	STK02,0,0
01995 063E 6600             	MVF	___fssub_STK02,1,0
01996 063F 641F             	MVF	STK01,0,0
01997 0640 6600             	MVF	___fssub_STK01,1,0
01998 0641 6420             	MVF	STK00,0,0
01999 0642 6600             	MVF	___fssub_STK00,1,0
02000 0643 6400             	MVF	r0x119A,0,0
02001 0644 C000 F000        	CALL	___fssub
02002                       	.CHKPARA ___fssub 8
02003 0646 6600             	MVF	r0x119A,1,0
02004 0647 641E             	MVF	STK02,0,0
02005 0648 6600             	MVF	___fs2slong_STK02,1,0
02006 0649 641F             	MVF	STK01,0,0
02007 064A 6600             	MVF	___fs2slong_STK01,1,0
02008 064B 6420             	MVF	STK00,0,0
02009 064C 6600             	MVF	___fs2slong_STK00,1,0
02010 064D 6400             	MVF	r0x119A,0,0
02011 064E C000 F000        	CALL	___fs2slong
02012                       	.CHKPARA ___fs2slong 4
02013 0650 6600             	MVF	r0x119A,1,0
02014 0651 641E             	MVF	STK02,0,0
02015                       ;	;.line	685; ".\ADC_LCD.c"	LCDDisplay=Reverse_Data(LCDDisplay);
02016 0652 6600             	MVF	_Reverse_Data_STK02,1,0
02017 0653 641F             	MVF	STK01,0,0
02018 0654 6600             	MVF	_Reverse_Data_STK01,1,0
02019 0655 6420             	MVF	STK00,0,0
02020 0656 6600             	MVF	_Reverse_Data_STK00,1,0
02021 0657 6400             	MVF	r0x119A,0,0
02022 0658 C000 F000        	CALL	_Reverse_Data
02023                       	.CHKPARA _Reverse_Data 4
02024 065A 6600             	MVF	r0x119A,1,0
02025 065B 641E             	MVF	STK02,0,0
02026                       ;	;.line	686; ".\ADC_LCD.c"	LCDDisplay=UnitConverter(LCDDisplay);
02027 065C 6600             	MVF	_UnitConverter_STK02,1,0
02028 065D 641F             	MVF	STK01,0,0
02029 065E 6600             	MVF	_UnitConverter_STK01,1,0
02030 065F 6420             	MVF	STK00,0,0
02031 0660 6600             	MVF	_UnitConverter_STK00,1,0
02032 0661 6400             	MVF	r0x119A,0,0
02033 0662 C000 F000        	CALL	_UnitConverter
02034 0664 6600             	MVF	r0x119A,1,0
02035 0665 641E             	MVF	STK02,0,0
02036                       ;	;.line	687; ".\ADC_LCD.c"	DisplayNum(LCDDisplay);
02037 0666 6600             	MVF	_DisplayNum_STK02,1,0
02038 0667 641F             	MVF	STK01,0,0
02039 0668 6600             	MVF	_DisplayNum_STK01,1,0
02040 0669 6420             	MVF	STK00,0,0
02041 066A 6600             	MVF	_DisplayNum_STK00,1,0
02042 066B 6400             	MVF	r0x119A,0,0
02043 066C C000 F000        	CALL	_DisplayNum
02044                       	.CHKPARA _DisplayNum 4
02045                       ;	;.line	688; ".\ADC_LCD.c"	LowVoltageDisplay();
02046 066E C000 F000        	CALL	_LowVoltageDisplay
02047                       ;	;.line	690; ".\ADC_LCD.c"	Delay(20000);
02048 0670 0620             	MVL	0x20
02049 0671 6600             	MVF	_Delay_STK00,1,0
02050 0672 064E             	MVL	0x4e
02051 0673 C000 F000        	CALL	_Delay
02052                       	.CHKPARA _Delay 2
02053 0675 C200 F000        	JMP	_00562_DS_
02054 0677                  _00554_DS_:
02055                       ;	;.line	696; ".\ADC_LCD.c"	LCDDisplay= 56193  - (8.47 * delta) ;//y=-0.846x + 5619.3
02056 0677 6400             	MVF	r0x119B,0,0
02057 0678 6600             	MVF	___fsmul_STK06,1,0
02058 0679 6400             	MVF	r0x119C,0,0
02059 067A 6600             	MVF	___fsmul_STK05,1,0
02060 067B 6400             	MVF	r0x119D,0,0
02061 067C 6600             	MVF	___fsmul_STK04,1,0
02062 067D 6400             	MVF	r0x119E,0,0
02063 067E 6600             	MVF	___fsmul_STK03,1,0
02064 067F 061F             	MVL	0x1f
02065 0680 6600             	MVF	___fsmul_STK02,1,0
02066 0681 0685             	MVL	0x85
02067 0682 6600             	MVF	___fsmul_STK01,1,0
02068 0683 0607             	MVL	0x07
02069 0684 6600             	MVF	___fsmul_STK00,1,0
02070 0685 0641             	MVL	0x41
02071 0686 C000 F000        	CALL	___fsmul
02072                       	.CHKPARA ___fsmul 8
02073 0688 6600             	MVF	r0x119A,1,0
02074 0689 641E             	MVF	STK02,0,0
02075 068A 6600             	MVF	___fssub_STK06,1,0
02076 068B 641F             	MVF	STK01,0,0
02077 068C 6600             	MVF	___fssub_STK05,1,0
02078 068D 6420             	MVF	STK00,0,0
02079 068E 6600             	MVF	___fssub_STK04,1,0
02080 068F 6400             	MVF	r0x119A,0,0
02081 0690 6600             	MVF	___fssub_STK03,1,0
02082 0691 0C00             	CLRF	___fssub_STK02,0
02083 0692 0681             	MVL	0x81
02084 0693 6600             	MVF	___fssub_STK01,1,0
02085 0694 065B             	MVL	0x5b
02086 0695 6600             	MVF	___fssub_STK00,1,0
02087 0696 0647             	MVL	0x47
02088 0697 C000 F000        	CALL	___fssub
02089                       	.CHKPARA ___fssub 8
02090 0699 6600             	MVF	r0x119A,1,0
02091 069A 641E             	MVF	STK02,0,0
02092 069B 6600             	MVF	___fs2slong_STK02,1,0
02093 069C 641F             	MVF	STK01,0,0
02094 069D 6600             	MVF	___fs2slong_STK01,1,0
02095 069E 6420             	MVF	STK00,0,0
02096 069F 6600             	MVF	___fs2slong_STK00,1,0
02097 06A0 6400             	MVF	r0x119A,0,0
02098 06A1 C000 F000        	CALL	___fs2slong
02099                       	.CHKPARA ___fs2slong 4
02100 06A3 6600             	MVF	r0x119A,1,0
02101 06A4 641E             	MVF	STK02,0,0
02102                       ;	;.line	697; ".\ADC_LCD.c"	LCDDisplay=Reverse_Data(LCDDisplay);
02103 06A5 6600             	MVF	_Reverse_Data_STK02,1,0
02104 06A6 641F             	MVF	STK01,0,0
02105 06A7 6600             	MVF	_Reverse_Data_STK01,1,0
02106 06A8 6420             	MVF	STK00,0,0
02107 06A9 6600             	MVF	_Reverse_Data_STK00,1,0
02108 06AA 6400             	MVF	r0x119A,0,0
02109 06AB C000 F000        	CALL	_Reverse_Data
02110                       	.CHKPARA _Reverse_Data 4
02111 06AD 6600             	MVF	r0x119A,1,0
02112 06AE 641E             	MVF	STK02,0,0
02113                       ;	;.line	698; ".\ADC_LCD.c"	LCDDisplay=UnitConverter(LCDDisplay);
02114 06AF 6600             	MVF	_UnitConverter_STK02,1,0
02115 06B0 641F             	MVF	STK01,0,0
02116 06B1 6600             	MVF	_UnitConverter_STK01,1,0
02117 06B2 6420             	MVF	STK00,0,0
02118 06B3 6600             	MVF	_UnitConverter_STK00,1,0
02119 06B4 6400             	MVF	r0x119A,0,0
02120 06B5 C000 F000        	CALL	_UnitConverter
02121 06B7 6600             	MVF	r0x119A,1,0
02122 06B8 641E             	MVF	STK02,0,0
02123                       ;	;.line	699; ".\ADC_LCD.c"	DisplayNum( LCDDisplay);
02124 06B9 6600             	MVF	_DisplayNum_STK02,1,0
02125 06BA 641F             	MVF	STK01,0,0
02126 06BB 6600             	MVF	_DisplayNum_STK01,1,0
02127 06BC 6420             	MVF	STK00,0,0
02128 06BD 6600             	MVF	_DisplayNum_STK00,1,0
02129 06BE 6400             	MVF	r0x119A,0,0
02130 06BF C000 F000        	CALL	_DisplayNum
02131                       	.CHKPARA _DisplayNum 4
02132                       ;	;.line	700; ".\ADC_LCD.c"	LowVoltageDisplay();
02133 06C1 C000 F000        	CALL	_LowVoltageDisplay
02134                       ;	;.line	702; ".\ADC_LCD.c"	Delay(20000);
02135 06C3 0620             	MVL	0x20
02136 06C4 6600             	MVF	_Delay_STK00,1,0
02137 06C5 064E             	MVL	0x4e
02138 06C6 C000 F000        	CALL	_Delay
02139                       	.CHKPARA _Delay 2
02140 06C8 C200 F000        	JMP	_00562_DS_
02141 06CA                  _00560_DS_:
02142                       ;	;.line	709; ".\ADC_LCD.c"	ADC=Reverse_Data(ADC);
02143 06CA 6400             	MVF	_ADC,0,0
02144 06CB 6600             	MVF	_Reverse_Data_STK02,1,0
02145 06CC 6400             	MVF	(_ADC + 1),0,0
02146 06CD 6600             	MVF	_Reverse_Data_STK01,1,0
02147 06CE 6400             	MVF	(_ADC + 2),0,0
02148 06CF 6600             	MVF	_Reverse_Data_STK00,1,0
02149 06D0 6400             	MVF	(_ADC + 3),0,0
02150 06D1 C000 F000        	CALL	_Reverse_Data
02151                       	.CHKPARA _Reverse_Data 4
02152 06D3 6600             	MVF	(_ADC + 3),1,0
02153 06D4 6420             	MVF	STK00,0,0
02154 06D5 6600             	MVF	(_ADC + 2),1,0
02155 06D6 641F             	MVF	STK01,0,0
02156 06D7 6600             	MVF	(_ADC + 1),1,0
02157 06D8 641E             	MVF	STK02,0,0
02158 06D9 6600             	MVF	_ADC,1,0
02159                       ;	;.line	710; ".\ADC_LCD.c"	DisplayNum(ADC);
02160 06DA 6600             	MVF	_DisplayNum_STK02,1,0
02161 06DB 6400             	MVF	(_ADC + 1),0,0
02162 06DC 6600             	MVF	_DisplayNum_STK01,1,0
02163 06DD 6400             	MVF	(_ADC + 2),0,0
02164 06DE 6600             	MVF	_DisplayNum_STK00,1,0
02165 06DF 6400             	MVF	(_ADC + 3),0,0
02166 06E0 C000 F000        	CALL	_DisplayNum
02167                       	.CHKPARA _DisplayNum 4
02168                       ;	;.line	711; ".\ADC_LCD.c"	LowVoltageDisplay();
02169 06E2 C000 F000        	CALL	_LowVoltageDisplay
02170                       ;	;.line	713; ".\ADC_LCD.c"	Delay(20000);
02171 06E4 0620             	MVL	0x20
02172 06E5 6600             	MVF	_Delay_STK00,1,0
02173 06E6 064E             	MVL	0x4e
02174 06E7 C000 F000        	CALL	_Delay
02175                       	.CHKPARA _Delay 2
02176 06E9                  _00562_DS_:
02177                       ;	;.line	717; ".\ADC_LCD.c"	}
02178 06E9 000A             	RET	
02179                       ; exit point of _PositivePressureWorks_Mode
02180 06EA --              	.ENDFUNC	_PositivePressureWorks_Mode
02181                       ;--------------------------------------------------------
02182                       
02183                       .globl _SetupUnit_Mode
02184                       
02185                       ;--------------------------------------------------------
02186                       	.FUNC _SetupUnit_Mode:0:$C:_Delay:$C:_HY17P52WR3\
02187 06EA --              :$L:r0x1195
02188                       ;--------------------------------------------------------
02189                       ;	;.line	606; ".\ADC_LCD.c"	adS.Presskey_flag=0;
02190 06EA                  _SetupUnit_Mode:	;Function start
02191 06EA 8A00             	BCF	(_adS+6),5
02192                       ;	;.line	607; ".\ADC_LCD.c"	adS.unit_setMode =0 ;
02193 06EB 8200             	BCF	_adS,1
02194                       ;	;.line	608; ".\ADC_LCD.c"	adS.testMode = 0;
02195 06EC 8000             	BCF	(_adS+3),0
02196                       ;	;.line	609; ".\ADC_LCD.c"	adS.reload_ADCInterrupt = 1;
02197 06ED 9000             	BSF	(_adS+13),0
02198                       ;	;.line	610; ".\ADC_LCD.c"	adS.resetZeroDisplay=0;
02199 06EE 0C00             	CLRF	(_adS + 5),0
02200                       ;	;.line	611; ".\ADC_LCD.c"	adS.key_flag =0;
02201 06EF 0C00             	CLRF	(_adS + 4),0
02202                       ;	;.line	613; ".\ADC_LCD.c"	GPIO_PT16_HIGH();
02203 06F0 06BF             	MVL	0xbf
02204 06F1 2847             	ANDF	_PT1,0,0
02205 06F2 0240             	IORL	0x40
02206 06F3 6647             	MVF	_PT1,1,0
02207                       ;	;.line	614; ".\ADC_LCD.c"	Delay(20000);
02208 06F4 0620             	MVL	0x20
02209 06F5 6600             	MVF	_Delay_STK00,1,0
02210 06F6 064E             	MVL	0x4e
02211 06F7 C000 F000        	CALL	_Delay
02212                       	.CHKPARA _Delay 2
02213                       ;	;.line	615; ".\ADC_LCD.c"	GPIO_PT16_LOW();
02214 06F9 8C47             	BCF	_PT1,6
02215                       ;	;.line	616; ".\ADC_LCD.c"	Delay(20000);
02216 06FA 0620             	MVL	0x20
02217 06FB 6600             	MVF	_Delay_STK00,1,0
02218 06FC 064E             	MVL	0x4e
02219 06FD C000 F000        	CALL	_Delay
02220                       	.CHKPARA _Delay 2
02221                       ;	;.line	617; ".\ADC_LCD.c"	GPIO_PT16_HIGH();
02222 06FF 06BF             	MVL	0xbf
02223 0700 2847             	ANDF	_PT1,0,0
02224 0701 0240             	IORL	0x40
02225 0702 6647             	MVF	_PT1,1,0
02226                       ;	;.line	618; ".\ADC_LCD.c"	Delay(20000);
02227 0703 0620             	MVL	0x20
02228 0704 6600             	MVF	_Delay_STK00,1,0
02229 0705 064E             	MVL	0x4e
02230 0706 C000 F000        	CALL	_Delay
02231                       	.CHKPARA _Delay 2
02232                       ;	;.line	619; ".\ADC_LCD.c"	GPIO_PT16_LOW();
02233 0708 8C47             	BCF	_PT1,6
02234                       ;	;.line	622; ".\ADC_LCD.c"	HY17P52WR3(0,0xAA,adS.unitChoose);	//addr=00,BIE_DataH=0xAA,BIE_DataL=0x11
02235 0709 6400             	MVF	(_adS + 2),0,0
02236 070A 6600             	MVF	_HY17P52WR3_STK01,1,0
02237 070B 06AA             	MVL	0xaa
02238 070C 6600             	MVF	_HY17P52WR3_STK00,1,0
02239 070D 0600             	MVL	0x00
02240 070E C000 F000        	CALL	_HY17P52WR3
02241                       	.CHKPARA _HY17P52WR3 3
02242                       ;	;.line	623; ".\ADC_LCD.c"	if(Flag== 1)
02243 0710 3400             	DCSZ	_Flag,0,0
02244 0711 C200 F000        	JMP	_00490_DS_
02245                       ;	;.line	625; ".\ADC_LCD.c"	GPIO_PT16_HIGH();
02246 0713 06BF             	MVL	0xbf
02247 0714 2847             	ANDF	_PT1,0,0
02248 0715 0240             	IORL	0x40
02249 0716 6647             	MVF	_PT1,1,0
02250 0717                  _00487_DS_:
02251                       ;	;.line	626; ".\ADC_LCD.c"	while(1);    //fail
02252 0717 C200 F000        	JMP	_00487_DS_
02253 0719                  _00490_DS_:
02254                       ;	;.line	630; ".\ADC_LCD.c"	BIEARL=0;                                //addr=0
02255 0719 0C30             	CLRF	_BIEARL,0
02256                       ;	;.line	631; ".\ADC_LCD.c"	BIECN=BIECN | 0x01;              //BIE_DataH=0xAA,BIE_DataL=0x11
02257 071A 902E             	BSF	_BIECN,0
02258 071B                  _00491_DS_:
02259                       ;	;.line	632; ".\ADC_LCD.c"	while((BIECN& 0x01)==1); 
02260 071B 642E             	MVF	_BIECN,0,0
02261 071C 0101             	ANDL	0x01
02262 071D 6600             	MVF	r0x1195,1,0
02263 071E 3000             	DCF	r0x1195,0,0
02264 071F A02B             	BTSZ	_STATUS,0
02265 0720 C200 F000        	JMP	_00491_DS_
02266                       ;	;.line	633; ".\ADC_LCD.c"	adS.eepromRead_UnitLow_bit=BIEDRL;
02267 0722 6432             	MVF	_BIEDRL,0,0
02268 0723 6600             	MVF	(_adS + 12),1,0
02269 0724 6600             	MVF	r0x1195,1,0
02270                       ;	;.line	635; ".\ADC_LCD.c"	if(adS.eepromRead_UnitLow_bit==0)  LCD_WriteData(&LCD4, seg_bar) ; 
02271 0725 6E29             	TFSZ	_WREG,0
02272 0726 C200 F000        	JMP	_00503_DS_
02273 0728 0602             	MVL	0x02
02274 0729 6663             	MVF	_LCD4,1,0
02275 072A C200 F000        	JMP	_00505_DS_
02276 072C                  _00503_DS_:
02277                       ;	;.line	636; ".\ADC_LCD.c"	else if(adS.eepromRead_UnitLow_bit==1)LCD_WriteData(&LCD4, seg_kgf) ; 
02278 072C 3400             	DCSZ	r0x1195,0,0
02279 072D C200 F000        	JMP	_00500_DS_
02280 072F 0601             	MVL	0x01
02281 0730 6663             	MVF	_LCD4,1,0
02282 0731 C200 F000        	JMP	_00505_DS_
02283 0733                  _00500_DS_:
02284                       ;	;.line	637; ".\ADC_LCD.c"	else if(adS.eepromRead_UnitLow_bit==2)LCD_WriteData(&LCD4, seg_mpa) ; 
02285 0733 6400             	MVF	r0x1195,0,0
02286 0734 0302             	XORL	0x02
02287 0735 B02B             	BTSS	_STATUS,0
02288 0736 C200 F000        	JMP	_00497_DS_
02289 0738 0608             	MVL	0x08
02290 0739 6663             	MVF	_LCD4,1,0
02291 073A C200 F000        	JMP	_00505_DS_
02292 073C                  _00497_DS_:
02293                       ;	;.line	638; ".\ADC_LCD.c"	else if(adS.eepromRead_UnitLow_bit==3)LCD_WriteData(&LCD4, seg_psi) ; 
02294 073C 6400             	MVF	r0x1195,0,0
02295 073D 0303             	XORL	0x03
02296 073E B02B             	BTSS	_STATUS,0
02297 073F C200 F000        	JMP	_00505_DS_
02298 0741 0604             	MVL	0x04
02299 0742 6663             	MVF	_LCD4,1,0
02300 0743                  _00505_DS_:
02301                       ;	;.line	642; ".\ADC_LCD.c"	}
02302 0743 000A             	RET	
02303                       ; exit point of _SetupUnit_Mode
02304 0744 --              	.ENDFUNC	_SetupUnit_Mode
02305                       ;--------------------------------------------------------
02306                       
02307                       .globl _SetupZeroPoint_Mode
02308                       
02309                       ;--------------------------------------------------------
02310                       	.FUNC _SetupZeroPoint_Mode:0:$C:___slong2fs:$C:___fsmul:$C:___fs2slong:$C:_HY17P52WR3\
02311                       :$L:r0x1190:$L:r0x118F:$L:r0x118E:$L:r0x118D:$L:r0x1191\
02312 0744 --              :$L:r0x1192
02313                       ;--------------------------------------------------------
02314                       ;	;.line	504; ".\ADC_LCD.c"	adS.key_flag =0;
02315 0744                  _SetupZeroPoint_Mode:	;Function start
02316 0744 0C00             	CLRF	(_adS + 4),0
02317                       ;	;.line	505; ".\ADC_LCD.c"	adS.resetZeroDisplay=0;
02318 0745 0C00             	CLRF	(_adS + 5),0
02319                       ;	;.line	506; ".\ADC_LCD.c"	adS.zeroPoint_Mode =0;
02320 0746 8200             	BCF	(_adS+3),1
02321                       ;	;.line	507; ".\ADC_LCD.c"	adS.testMode=0;
02322 0747 8000             	BCF	(_adS+3),0
02323                       ;	;.line	508; ".\ADC_LCD.c"	ADC=ADC>>6;
02324 0748 6000             	SWPF	_ADC,0,0
02325 0749 010F             	ANDL	0x0f
02326 074A 6600             	MVF	_ADC,1,0
02327 074B 6000             	SWPF	(_ADC + 1),0,0
02328 074C 6600             	MVF	(_ADC + 1),1,0
02329 074D 01F0             	ANDL	0xf0
02330 074E 2E00             	IORF	_ADC,1,0
02331 074F 2200             	XORF	(_ADC + 1),1,0
02332 0750 6000             	SWPF	(_ADC + 2),0,0
02333 0751 6600             	MVF	(_ADC + 2),1,0
02334 0752 01F0             	ANDL	0xf0
02335 0753 2E00             	IORF	(_ADC + 1),1,0
02336 0754 2200             	XORF	(_ADC + 2),1,0
02337 0755 6000             	SWPF	(_ADC + 3),0,0
02338 0756 6600             	MVF	(_ADC + 3),1,0
02339 0757 01F0             	ANDL	0xf0
02340 0758 2E00             	IORF	(_ADC + 2),1,0
02341 0759 2200             	XORF	(_ADC + 3),1,0
02342 075A 06F0             	MVL	0xf0
02343 075B A600             	BTSZ	(_ADC + 3),3
02344 075C 2E00             	IORF	(_ADC + 3),1,0
02345 075D 5E00             	ARRC	(_ADC + 3),1,0
02346 075E 5200             	RRFC	(_ADC + 2),1,0
02347 075F 5200             	RRFC	(_ADC + 1),1,0
02348 0760 5200             	RRFC	_ADC,1,0
02349 0761 5E00             	ARRC	(_ADC + 3),1,0
02350 0762 5200             	RRFC	(_ADC + 2),1,0
02351 0763 5200             	RRFC	(_ADC + 1),1,0
02352 0764 5200             	RRFC	_ADC,1,0
02353                       ;	;.line	509; ".\ADC_LCD.c"	ADC = ADC * 0.1;
02354 0765 6400             	MVF	_ADC,0,0
02355 0766 6600             	MVF	___slong2fs_STK02,1,0
02356 0767 6400             	MVF	(_ADC + 1),0,0
02357 0768 6600             	MVF	___slong2fs_STK01,1,0
02358 0769 6400             	MVF	(_ADC + 2),0,0
02359 076A 6600             	MVF	___slong2fs_STK00,1,0
02360 076B 6400             	MVF	(_ADC + 3),0,0
02361 076C C000 F000        	CALL	___slong2fs
02362                       	.CHKPARA ___slong2fs 4
02363 076E 6600             	MVF	r0x1190,1,0
02364 076F 641E             	MVF	STK02,0,0
02365 0770 6600             	MVF	___fsmul_STK06,1,0
02366 0771 641F             	MVF	STK01,0,0
02367 0772 6600             	MVF	___fsmul_STK05,1,0
02368 0773 6420             	MVF	STK00,0,0
02369 0774 6600             	MVF	___fsmul_STK04,1,0
02370 0775 6400             	MVF	r0x1190,0,0
02371 0776 6600             	MVF	___fsmul_STK03,1,0
02372 0777 06CD             	MVL	0xcd
02373 0778 6600             	MVF	___fsmul_STK02,1,0
02374 0779 06CC             	MVL	0xcc
02375 077A 6600             	MVF	___fsmul_STK01,1,0
02376 077B 6600             	MVF	___fsmul_STK00,1,0
02377 077C 063D             	MVL	0x3d
02378 077D C000 F000        	CALL	___fsmul
02379                       	.CHKPARA ___fsmul 8
02380 077F 6600             	MVF	r0x1190,1,0
02381 0780 641E             	MVF	STK02,0,0
02382 0781 6600             	MVF	___fs2slong_STK02,1,0
02383 0782 641F             	MVF	STK01,0,0
02384 0783 6600             	MVF	___fs2slong_STK01,1,0
02385 0784 6420             	MVF	STK00,0,0
02386 0785 6600             	MVF	___fs2slong_STK00,1,0
02387 0786 6400             	MVF	r0x1190,0,0
02388 0787 C000 F000        	CALL	___fs2slong
02389                       	.CHKPARA ___fs2slong 4
02390 0789 6600             	MVF	(_ADC + 3),1,0
02391 078A 6420             	MVF	STK00,0,0
02392 078B 6600             	MVF	(_ADC + 2),1,0
02393 078C 641F             	MVF	STK01,0,0
02394 078D 6600             	MVF	(_ADC + 1),1,0
02395 078E 641E             	MVF	STK02,0,0
02396 078F 6600             	MVF	_ADC,1,0
02397                       ;	;.line	510; ".\ADC_LCD.c"	if((ADC<0)||(ADC>0x80000000))
02398 0790 AE00             	BTSZ	(_ADC + 3),7
02399 0791 C200 F000        	JMP	_00417_DS_
02400 0793 3000             	DCF	_ADC,0,0
02401 0794 06FF             	MVL	0xff
02402 0795 1400             	ADDC	(_ADC + 1),0,0
02403 0796 06FF             	MVL	0xff
02404 0797 1400             	ADDC	(_ADC + 2),0,0
02405 0798 067F             	MVL	0x7f
02406 0799 1400             	ADDC	(_ADC + 3),0,0
02407 079A B82B             	BTSS	_STATUS,4
02408 079B C200 F000        	JMP	_00418_DS_
02409 079D                  _00417_DS_:
02410                       ;	;.line	513; ".\ADC_LCD.c"	adS.Pressure_sign =1;
02411 079D 9C00             	BSF	(_adS+6),6
02412 079E C200 F000        	JMP	_00419_DS_
02413 07A0                  _00418_DS_:
02414                       ;	;.line	517; ".\ADC_LCD.c"	adS.Pressure_sign =0;
02415 07A0 8C00             	BCF	(_adS+6),6
02416 07A1                  _00419_DS_:
02417                       ;	;.line	523; ".\ADC_LCD.c"	if(adS.Pressure_sign==1){ /*negative pressure "-"*/
02418 07A1 BC00             	BTSS	(_adS+6),6
02419 07A2 C200 F000        	JMP	_00468_DS_
02420                       ;	;.line	525; ".\ADC_LCD.c"	adS.minus_revise_flag=1;   
02421 07A4 9800             	BSF	(_adS+6),4
02422                       ;	;.line	526; ".\ADC_LCD.c"	adS.m_offset_value = abs(ADC) - STD_NEGATIVE_VOLTAGE + 1; //
02423 07A5 3000             	DCF	_ADC,0,0
02424 07A6 06FF             	MVL	0xff
02425 07A7 1400             	ADDC	(_ADC + 1),0,0
02426 07A8 06FF             	MVL	0xff
02427 07A9 1400             	ADDC	(_ADC + 2),0,0
02428 07AA 067F             	MVL	0x7f
02429 07AB 1400             	ADDC	(_ADC + 3),0,0
02430 07AC B22B             	BTSS	_STATUS,1
02431 07AD C200 F000        	JMP	_00472_DS_
02432 07AF 6400             	MVF	_ADC,0,0
02433 07B0 6600             	MVF	r0x118D,1,0
02434 07B1 6400             	MVF	(_ADC + 1),0,0
02435 07B2 6600             	MVF	r0x118E,1,0
02436 07B3 C200 F000        	JMP	_00473_DS_
02437 07B5                  _00472_DS_:
02438 07B5 2400             	COMF	_ADC,0,0
02439 07B6 6600             	MVF	r0x118D,1,0
02440 07B7 2400             	COMF	(_ADC + 1),0,0
02441 07B8 6600             	MVF	r0x118E,1,0
02442 07B9 2400             	COMF	(_ADC + 2),0,0
02443 07BA 6600             	MVF	r0x118F,1,0
02444 07BB 2400             	COMF	(_ADC + 3),0,0
02445 07BC 6600             	MVF	r0x1190,1,0
02446 07BD 3A00             	INF	r0x118D,1,0
02447 07BE 0600             	MVL	0x00
02448 07BF 1600             	ADDC	r0x118E,1,0
02449 07C0 1600             	ADDC	r0x118F,1,0
02450 07C1 1600             	ADDC	r0x1190,1,0
02451 07C2                  _00473_DS_:
02452 07C2 0637             	MVL	0x37
02453 07C3 1000             	ADDF	r0x118D,0,0
02454 07C4 6600             	MVF	r0x118D,1,0
02455 07C5 06E7             	MVL	0xe7
02456 07C6 1400             	ADDC	r0x118E,0,0
02457 07C7 C600 F000        	MVSF	r0x118D,(_adS + 18)
02458 07C9 6600             	MVF	(_adS + 19),1,0
02459                       ;	;.line	527; ".\ADC_LCD.c"	if(adS.m_offset_value >=0){
02460 07CA A42B             	BTSZ	_STATUS,2
02461 07CB C200 F000        	JMP	_00442_DS_
02462                       ;	;.line	529; ".\ADC_LCD.c"	HY17P52WR3(3,0x33,adS.m_offset_value);	//addr=02,BIE_DataH=0xAA,BIE_DataL=0x11
02463 07CD 6400             	MVF	(_adS + 18),0,0
02464 07CE 6600             	MVF	_HY17P52WR3_STK01,1,0
02465 07CF 0633             	MVL	0x33
02466 07D0 6600             	MVF	_HY17P52WR3_STK00,1,0
02467 07D1 0603             	MVL	0x03
02468 07D2 C000 F000        	CALL	_HY17P52WR3
02469                       	.CHKPARA _HY17P52WR3 3
02470                       ;	;.line	530; ".\ADC_LCD.c"	if(Flag== 1)
02471 07D4 3400             	DCSZ	_Flag,0,0
02472 07D5 C200 F000        	JMP	_00425_DS_
02473                       ;	;.line	532; ".\ADC_LCD.c"	GPIO_PT16_HIGH();
02474 07D7 06BF             	MVL	0xbf
02475 07D8 2847             	ANDF	_PT1,0,0
02476 07D9 0240             	IORL	0x40
02477 07DA 6647             	MVF	_PT1,1,0
02478 07DB                  _00422_DS_:
02479                       ;	;.line	533; ".\ADC_LCD.c"	while(1);    //fail
02480 07DB C200 F000        	JMP	_00422_DS_
02481 07DD                  _00425_DS_:
02482                       ;	;.line	535; ".\ADC_LCD.c"	HY17P52WR3(4,0x20,0x0);
02483 07DD 0C00             	CLRF	_HY17P52WR3_STK01,0
02484 07DE 0620             	MVL	0x20
02485 07DF 6600             	MVF	_HY17P52WR3_STK00,1,0
02486 07E0 0604             	MVL	0x04
02487 07E1 C000 F000        	CALL	_HY17P52WR3
02488                       	.CHKPARA _HY17P52WR3 3
02489                       ;	;.line	536; ".\ADC_LCD.c"	if(Flag== 1)
02490 07E3 3400             	DCSZ	_Flag,0,0
02491 07E4 C200 F000        	JMP	_00470_DS_
02492                       ;	;.line	538; ".\ADC_LCD.c"	GPIO_PT16_HIGH();
02493 07E6 06BF             	MVL	0xbf
02494 07E7 2847             	ANDF	_PT1,0,0
02495 07E8 0240             	IORL	0x40
02496 07E9 6647             	MVF	_PT1,1,0
02497 07EA                  _00427_DS_:
02498                       ;	;.line	539; ".\ADC_LCD.c"	while(1);    //fail
02499 07EA C200 F000        	JMP	_00427_DS_
02500 07EC                  _00442_DS_:
02501                       ;	;.line	543; ".\ADC_LCD.c"	adS.m_offset_value = abs(adS.m_offset_value); //write delta data in eeprom
02502 07EC 3000             	DCF	(_adS + 18),0,0
02503 07ED 067F             	MVL	0x7f
02504 07EE 1400             	ADDC	(_adS + 19),0,0
02505 07EF B22B             	BTSS	_STATUS,1
02506 07F0 C200 F000        	JMP	_00474_DS_
02507 07F2 6400             	MVF	(_adS + 18),0,0
02508 07F3 6600             	MVF	r0x118D,1,0
02509 07F4 C200 F000        	JMP	_00475_DS_
02510 07F6                  _00474_DS_:
02511 07F6 2400             	COMF	(_adS + 18),0,0
02512 07F7 6600             	MVF	r0x118D,1,0
02513 07F8 2400             	COMF	(_adS + 19),0,0
02514 07F9 4200             	INSUZ	r0x118D,1,0
02515 07FA 0401             	ADDL	0x01
02516 07FB 6600             	MVF	r0x118E,1,0
02517 07FC                  _00475_DS_:
02518 07FC 6400             	MVF	r0x118D,0,0
02519 07FD 6600             	MVF	(_adS + 18),1,0
02520                       ;	;.line	544; ".\ADC_LCD.c"	HY17P52WR3(4,0x44,adS.m_offset_value);	//addr=02,BIE_DataH=0xAA,BIE_DataL=0x11
02521 07FE C600 F000        	MVSF	r0x118E,(_adS + 19)
02522 0800 6600             	MVF	_HY17P52WR3_STK01,1,0
02523 0801 0644             	MVL	0x44
02524 0802 6600             	MVF	_HY17P52WR3_STK00,1,0
02525 0803 0604             	MVL	0x04
02526 0804 C000 F000        	CALL	_HY17P52WR3
02527                       	.CHKPARA _HY17P52WR3 3
02528                       ;	;.line	545; ".\ADC_LCD.c"	if(Flag== 1)
02529 0806 3400             	DCSZ	_Flag,0,0
02530 0807 C200 F000        	JMP	_00435_DS_
02531                       ;	;.line	547; ".\ADC_LCD.c"	GPIO_PT16_HIGH();
02532 0809 06BF             	MVL	0xbf
02533 080A 2847             	ANDF	_PT1,0,0
02534 080B 0240             	IORL	0x40
02535 080C 6647             	MVF	_PT1,1,0
02536 080D                  _00432_DS_:
02537                       ;	;.line	548; ".\ADC_LCD.c"	while(1);    //fail
02538 080D C200 F000        	JMP	_00432_DS_
02539 080F                  _00435_DS_:
02540                       ;	;.line	550; ".\ADC_LCD.c"	HY17P52WR3(3,0x20,0x0);
02541 080F 0C00             	CLRF	_HY17P52WR3_STK01,0
02542 0810 0620             	MVL	0x20
02543 0811 6600             	MVF	_HY17P52WR3_STK00,1,0
02544 0812 0603             	MVL	0x03
02545 0813 C000 F000        	CALL	_HY17P52WR3
02546                       	.CHKPARA _HY17P52WR3 3
02547                       ;	;.line	551; ".\ADC_LCD.c"	if(Flag== 1)
02548 0815 3400             	DCSZ	_Flag,0,0
02549 0816 C200 F000        	JMP	_00470_DS_
02550                       ;	;.line	553; ".\ADC_LCD.c"	GPIO_PT16_HIGH();
02551 0818 06BF             	MVL	0xbf
02552 0819 2847             	ANDF	_PT1,0,0
02553 081A 0240             	IORL	0x40
02554 081B 6647             	MVF	_PT1,1,0
02555 081C                  _00437_DS_:
02556                       ;	;.line	554; ".\ADC_LCD.c"	while(1);    //fail
02557 081C C200 F000        	JMP	_00437_DS_
02558 081E                  _00468_DS_:
02559                       ;	;.line	560; ".\ADC_LCD.c"	adS.plus_revise_flag =1;
02560 081E 9600             	BSF	(_adS+6),3
02561                       ;	;.line	561; ".\ADC_LCD.c"	adS.p_offset_value= abs(ADC) -STD_VALUE + 1; 
02562 081F 3000             	DCF	_ADC,0,0
02563 0820 06FF             	MVL	0xff
02564 0821 1400             	ADDC	(_ADC + 1),0,0
02565 0822 06FF             	MVL	0xff
02566 0823 1400             	ADDC	(_ADC + 2),0,0
02567 0824 067F             	MVL	0x7f
02568 0825 1400             	ADDC	(_ADC + 3),0,0
02569 0826 B22B             	BTSS	_STATUS,1
02570 0827 C200 F000        	JMP	_00476_DS_
02571 0829 6400             	MVF	_ADC,0,0
02572 082A 6600             	MVF	r0x118D,1,0
02573 082B 6400             	MVF	(_ADC + 1),0,0
02574 082C 6600             	MVF	r0x118E,1,0
02575 082D C200 F000        	JMP	_00477_DS_
02576 082F                  _00476_DS_:
02577 082F 2400             	COMF	_ADC,0,0
02578 0830 6600             	MVF	r0x118D,1,0
02579 0831 2400             	COMF	(_ADC + 1),0,0
02580 0832 6600             	MVF	r0x118E,1,0
02581 0833 2400             	COMF	(_ADC + 2),0,0
02582 0834 6600             	MVF	r0x1191,1,0
02583 0835 2400             	COMF	(_ADC + 3),0,0
02584 0836 6600             	MVF	r0x1192,1,0
02585 0837 3A00             	INF	r0x118D,1,0
02586 0838 0600             	MVL	0x00
02587 0839 1600             	ADDC	r0x118E,1,0
02588 083A 1600             	ADDC	r0x1191,1,0
02589 083B 1600             	ADDC	r0x1192,1,0
02590 083C                  _00477_DS_:
02591 083C 0685             	MVL	0x85
02592 083D 1000             	ADDF	r0x118D,0,0
02593 083E 6600             	MVF	r0x118D,1,0
02594 083F 06E6             	MVL	0xe6
02595 0840 1400             	ADDC	r0x118E,0,0
02596 0841 C600 F000        	MVSF	r0x118D,(_adS + 20)
02597 0843 6600             	MVF	(_adS + 21),1,0
02598                       ;	;.line	562; ".\ADC_LCD.c"	if(adS.p_offset_value >=0){
02599 0844 A42B             	BTSZ	_STATUS,2
02600 0845 C200 F000        	JMP	_00465_DS_
02601                       ;	;.line	564; ".\ADC_LCD.c"	adS.p_offset_value = abs(adS.p_offset_value); //Write delta data in eeprom
02602 0847 3000             	DCF	(_adS + 20),0,0
02603 0848 067F             	MVL	0x7f
02604 0849 1400             	ADDC	(_adS + 21),0,0
02605 084A B22B             	BTSS	_STATUS,1
02606 084B C200 F000        	JMP	_00478_DS_
02607 084D 6400             	MVF	(_adS + 20),0,0
02608 084E 6600             	MVF	r0x118D,1,0
02609 084F C200 F000        	JMP	_00479_DS_
02610 0851                  _00478_DS_:
02611 0851 2400             	COMF	(_adS + 20),0,0
02612 0852 6600             	MVF	r0x118D,1,0
02613 0853 2400             	COMF	(_adS + 21),0,0
02614 0854 4200             	INSUZ	r0x118D,1,0
02615 0855 0401             	ADDL	0x01
02616 0856 6600             	MVF	r0x118E,1,0
02617 0857                  _00479_DS_:
02618 0857 6400             	MVF	r0x118D,0,0
02619 0858 6600             	MVF	(_adS + 20),1,0
02620                       ;	;.line	565; ".\ADC_LCD.c"	HY17P52WR3(1,0x11,adS.p_offset_value);	//addr=01,BIE_DataH=0xAA,BIE_DataL=0x11
02621 0859 C600 F000        	MVSF	r0x118E,(_adS + 21)
02622 085B 6600             	MVF	_HY17P52WR3_STK01,1,0
02623 085C 0611             	MVL	0x11
02624 085D 6600             	MVF	_HY17P52WR3_STK00,1,0
02625 085E 0601             	MVL	0x01
02626 085F C000 F000        	CALL	_HY17P52WR3
02627                       	.CHKPARA _HY17P52WR3 3
02628                       ;	;.line	566; ".\ADC_LCD.c"	if(Flag== 1)
02629 0861 3400             	DCSZ	_Flag,0,0
02630 0862 C200 F000        	JMP	_00448_DS_
02631                       ;	;.line	568; ".\ADC_LCD.c"	GPIO_PT16_HIGH();
02632 0864 06BF             	MVL	0xbf
02633 0865 2847             	ANDF	_PT1,0,0
02634 0866 0240             	IORL	0x40
02635 0867 6647             	MVF	_PT1,1,0
02636 0868                  _00445_DS_:
02637                       ;	;.line	569; ".\ADC_LCD.c"	while(1);    //fail
02638 0868 C200 F000        	JMP	_00445_DS_
02639 086A                  _00448_DS_:
02640                       ;	;.line	571; ".\ADC_LCD.c"	HY17P52WR3(2,0x10,0x0);
02641 086A 0C00             	CLRF	_HY17P52WR3_STK01,0
02642 086B 0610             	MVL	0x10
02643 086C 6600             	MVF	_HY17P52WR3_STK00,1,0
02644 086D 0602             	MVL	0x02
02645 086E C000 F000        	CALL	_HY17P52WR3
02646                       	.CHKPARA _HY17P52WR3 3
02647                       ;	;.line	572; ".\ADC_LCD.c"	if(Flag== 1)
02648 0870 3400             	DCSZ	_Flag,0,0
02649 0871 C200 F000        	JMP	_00470_DS_
02650                       ;	;.line	574; ".\ADC_LCD.c"	GPIO_PT16_HIGH();
02651 0873 06BF             	MVL	0xbf
02652 0874 2847             	ANDF	_PT1,0,0
02653 0875 0240             	IORL	0x40
02654 0876 6647             	MVF	_PT1,1,0
02655 0877                  _00450_DS_:
02656                       ;	;.line	575; ".\ADC_LCD.c"	while(1);    //fail
02657 0877 C200 F000        	JMP	_00450_DS_
02658 0879                  _00465_DS_:
02659                       ;	;.line	579; ".\ADC_LCD.c"	adS.p_offset_value = abs(adS.p_offset_value); //Write delta data in eeprom
02660 0879 3000             	DCF	(_adS + 20),0,0
02661 087A 067F             	MVL	0x7f
02662 087B 1400             	ADDC	(_adS + 21),0,0
02663 087C B22B             	BTSS	_STATUS,1
02664 087D C200 F000        	JMP	_00480_DS_
02665 087F 6400             	MVF	(_adS + 20),0,0
02666 0880 6600             	MVF	r0x118D,1,0
02667 0881 C200 F000        	JMP	_00481_DS_
02668 0883                  _00480_DS_:
02669 0883 2400             	COMF	(_adS + 20),0,0
02670 0884 6600             	MVF	r0x118D,1,0
02671 0885 2400             	COMF	(_adS + 21),0,0
02672 0886 4200             	INSUZ	r0x118D,1,0
02673 0887 0401             	ADDL	0x01
02674 0888 6600             	MVF	r0x118E,1,0
02675 0889                  _00481_DS_:
02676 0889 6400             	MVF	r0x118D,0,0
02677 088A 6600             	MVF	(_adS + 20),1,0
02678                       ;	;.line	580; ".\ADC_LCD.c"	HY17P52WR3(2,0x22,adS.p_offset_value);	//addr=01,BIE_DataH=0xAA,BIE_DataL=0x11
02679 088B C600 F000        	MVSF	r0x118E,(_adS + 21)
02680 088D 6600             	MVF	_HY17P52WR3_STK01,1,0
02681 088E 0622             	MVL	0x22
02682 088F 6600             	MVF	_HY17P52WR3_STK00,1,0
02683 0890 0602             	MVL	0x02
02684 0891 C000 F000        	CALL	_HY17P52WR3
02685                       	.CHKPARA _HY17P52WR3 3
02686                       ;	;.line	581; ".\ADC_LCD.c"	if(Flag== 1)
02687 0893 3400             	DCSZ	_Flag,0,0
02688 0894 C200 F000        	JMP	_00458_DS_
02689                       ;	;.line	583; ".\ADC_LCD.c"	GPIO_PT16_HIGH();
02690 0896 06BF             	MVL	0xbf
02691 0897 2847             	ANDF	_PT1,0,0
02692 0898 0240             	IORL	0x40
02693 0899 6647             	MVF	_PT1,1,0
02694 089A                  _00455_DS_:
02695                       ;	;.line	584; ".\ADC_LCD.c"	while(1);    //fail
02696 089A C200 F000        	JMP	_00455_DS_
02697 089C                  _00458_DS_:
02698                       ;	;.line	586; ".\ADC_LCD.c"	HY17P52WR3(1,0x11,0x0);
02699 089C 0C00             	CLRF	_HY17P52WR3_STK01,0
02700 089D 0611             	MVL	0x11
02701 089E 6600             	MVF	_HY17P52WR3_STK00,1,0
02702 089F 0601             	MVL	0x01
02703 08A0 C000 F000        	CALL	_HY17P52WR3
02704                       	.CHKPARA _HY17P52WR3 3
02705                       ;	;.line	587; ".\ADC_LCD.c"	if(Flag== 1)
02706 08A2 3400             	DCSZ	_Flag,0,0
02707 08A3 C200 F000        	JMP	_00470_DS_
02708                       ;	;.line	589; ".\ADC_LCD.c"	GPIO_PT16_HIGH();
02709 08A5 06BF             	MVL	0xbf
02710 08A6 2847             	ANDF	_PT1,0,0
02711 08A7 0240             	IORL	0x40
02712 08A8 6647             	MVF	_PT1,1,0
02713 08A9                  _00460_DS_:
02714                       ;	;.line	590; ".\ADC_LCD.c"	while(1);    //fail
02715 08A9 C200 F000        	JMP	_00460_DS_
02716 08AB                  _00470_DS_:
02717                       ;	;.line	596; ".\ADC_LCD.c"	}
02718 08AB 000A             	RET	
02719                       ; exit point of _SetupZeroPoint_Mode
02720 08AC --              	.ENDFUNC	_SetupZeroPoint_Mode
02721                       ;--------------------------------------------------------
02722                       
02723                       .globl _LowVoltageDisplay
02724                       
02725                       ;--------------------------------------------------------
02726                       	.FUNC _LowVoltageDisplay:0:$C:_LowVoltageDetect_3V:$C:_DisplayBatteryCapacityFull:$C:_LowVoltageDetect_2V4:$C:_DisplayBatteryCapacityHalf\
02727                       :$C:_DispalyBatteryCapacityLow\
02728 08AC --              :$L:r0x118C
02729                       ;--------------------------------------------------------
02730                       ;	;.line	473; ".\ADC_LCD.c"	adS.LVD_3V_flag = LowVoltageDetect_3V();
02731 08AC                  _LowVoltageDisplay:	;Function start
02732 08AC C000 F000        	CALL	_LowVoltageDetect_3V
02733 08AE 6600             	MVF	r0x118C,1,0
02734 08AF 5000             	RRFC	r0x118C,0,0
02735 08B0 B82B             	BTSS	_STATUS,4
02736 08B1 8400             	BCF	(_adS+6),2
02737 08B2 A82B             	BTSZ	_STATUS,4
02738 08B3 9400             	BSF	(_adS+6),2
02739                       ;	;.line	474; ".\ADC_LCD.c"	if(adS.LVD_3V_flag==0){ /* battery capacity is full*/
02740 08B4 A400             	BTSZ	(_adS+6),2
02741 08B5 C200 F000        	JMP	_00410_DS_
02742                       ;	;.line	477; ".\ADC_LCD.c"	DisplayBatteryCapacityFull(); 
02743 08B7 C000 F000        	CALL	_DisplayBatteryCapacityFull
02744                       	.CHKPARA _DisplayBatteryCapacityFull 0
02745 08B9 C200 F000        	JMP	_00412_DS_
02746 08BB                  _00410_DS_:
02747                       ;	;.line	480; ".\ADC_LCD.c"	adS.LVD_2V4_flag = LowVoltageDetect_2V4();
02748 08BB C000 F000        	CALL	_LowVoltageDetect_2V4
02749 08BD 6600             	MVF	r0x118C,1,0
02750 08BE 5000             	RRFC	r0x118C,0,0
02751 08BF B82B             	BTSS	_STATUS,4
02752 08C0 8200             	BCF	(_adS+6),1
02753 08C1 A82B             	BTSZ	_STATUS,4
02754 08C2 9200             	BSF	(_adS+6),1
02755                       ;	;.line	481; ".\ADC_LCD.c"	if(adS.LVD_2V4_flag == 0){
02756 08C3 A200             	BTSZ	(_adS+6),1
02757 08C4 C200 F000        	JMP	_00407_DS_
02758                       ;	;.line	484; ".\ADC_LCD.c"	DisplayBatteryCapacityHalf();
02759 08C6 C000 F000        	CALL	_DisplayBatteryCapacityHalf
02760                       	.CHKPARA _DisplayBatteryCapacityHalf 0
02761 08C8 C200 F000        	JMP	_00412_DS_
02762 08CA                  _00407_DS_:
02763                       ;	;.line	488; ".\ADC_LCD.c"	DispalyBatteryCapacityLow();
02764 08CA C000 F000        	CALL	_DispalyBatteryCapacityLow
02765                       	.CHKPARA _DispalyBatteryCapacityLow 0
02766 08CC                  _00412_DS_:
02767                       ;	;.line	492; ".\ADC_LCD.c"	}
02768 08CC 000A             	RET	
02769                       ; exit point of _LowVoltageDisplay
02770 08CD --              	.ENDFUNC	_LowVoltageDisplay
02771                       ;--------------------------------------------------------
02772                       
02773                       .globl _LowVoltageDetect_2V4
02774                       
02775                       ;--------------------------------------------------------
02776                       	.FUNC _LowVoltageDetect_2V4:0:$C:_Delay\
02777 08CD --              :$L:r0x118B
02778                       ;--------------------------------------------------------
02779                       ;	;.line	448; ".\ADC_LCD.c"	LVD_VolSelect(VLDX_24);  
02780 08CD                  _LowVoltageDetect_2V4:	;Function start
02781 08CD 06E1             	MVL	0xe1
02782 08CE 2843             	ANDF	_LVDCN,0,0
02783 08CF 020A             	IORL	0x0a
02784 08D0 6643             	MVF	_LVDCN,1,0
02785                       ;	;.line	449; ".\ADC_LCD.c"	LVD_PWRSelect(PWRS_VDD);    
02786 08D1 8A43             	BCF	_LVDCN,5
02787                       ;	;.line	450; ".\ADC_LCD.c"	Delay(10);
02788 08D2 060A             	MVL	0x0a
02789 08D3 6600             	MVF	_Delay_STK00,1,0
02790 08D4 0600             	MVL	0x00
02791 08D5 C000 F000        	CALL	_Delay
02792                       	.CHKPARA _Delay 2
02793                       ;	;.line	451; ".\ADC_LCD.c"	if(LVD_GetLVDO())
02794 08D7 B043             	BTSS	_LVDCN,0
02795 08D8 C200 F000        	JMP	_00400_DS_
02796                       ;	;.line	453; ".\ADC_LCD.c"	flag= 0;    //Higher than detection voltage
02797 08DA 0C00             	CLRF	r0x118B,0
02798 08DB C200 F000        	JMP	_00401_DS_
02799 08DD                  _00400_DS_:
02800                       ;	;.line	457; ".\ADC_LCD.c"	flag= 1;    //Lower than detection voltage
02801 08DD 0601             	MVL	0x01
02802 08DE 6600             	MVF	r0x118B,1,0
02803 08DF                  _00401_DS_:
02804                       ;	;.line	459; ".\ADC_LCD.c"	return flag;
02805 08DF 6400             	MVF	r0x118B,0,0
02806                       ;	;.line	460; ".\ADC_LCD.c"	}
02807 08E0 000A             	RET	
02808                       ; exit point of _LowVoltageDetect_2V4
02809 08E1 --              	.ENDFUNC	_LowVoltageDetect_2V4
02810                       ;--------------------------------------------------------
02811                       
02812                       .globl _LowVoltageDetect_3V
02813                       
02814                       ;--------------------------------------------------------
02815                       	.FUNC _LowVoltageDetect_3V:0:$C:_Delay\
02816 08E1 --              :$L:r0x118A
02817                       ;--------------------------------------------------------
02818                       ;	;.line	422; ".\ADC_LCD.c"	LVD_VolSelect(VLDX_30 );  
02819 08E1                  _LowVoltageDetect_3V:	;Function start
02820 08E1 06E1             	MVL	0xe1
02821 08E2 2843             	ANDF	_LVDCN,0,0
02822 08E3 0216             	IORL	0x16
02823 08E4 6643             	MVF	_LVDCN,1,0
02824                       ;	;.line	423; ".\ADC_LCD.c"	LVD_PWRSelect(PWRS_VDD);    
02825 08E5 8A43             	BCF	_LVDCN,5
02826                       ;	;.line	424; ".\ADC_LCD.c"	Delay(10);
02827 08E6 060A             	MVL	0x0a
02828 08E7 6600             	MVF	_Delay_STK00,1,0
02829 08E8 0600             	MVL	0x00
02830 08E9 C000 F000        	CALL	_Delay
02831                       	.CHKPARA _Delay 2
02832                       ;	;.line	425; ".\ADC_LCD.c"	if(LVD_GetLVDO())
02833 08EB B043             	BTSS	_LVDCN,0
02834 08EC C200 F000        	JMP	_00393_DS_
02835                       ;	;.line	427; ".\ADC_LCD.c"	flag= 0;    //Higher than detection voltage
02836 08EE 0C00             	CLRF	r0x118A,0
02837 08EF C200 F000        	JMP	_00394_DS_
02838 08F1                  _00393_DS_:
02839                       ;	;.line	431; ".\ADC_LCD.c"	flag= 1;    //Lower than detection voltage
02840 08F1 0601             	MVL	0x01
02841 08F2 6600             	MVF	r0x118A,1,0
02842 08F3                  _00394_DS_:
02843                       ;	;.line	433; ".\ADC_LCD.c"	return flag;
02844 08F3 6400             	MVF	r0x118A,0,0
02845                       ;	;.line	434; ".\ADC_LCD.c"	}
02846 08F4 000A             	RET	
02847                       ; exit point of _LowVoltageDetect_3V
02848 08F5 --              	.ENDFUNC	_LowVoltageDetect_3V
02849                       ;--------------------------------------------------------
02850                       
02851                       .globl _UnitConverter
02852                       
02853                       ;--------------------------------------------------------
02854                       	.FUNC _UnitConverter:4:$C:___slong2fs:$C:___fsmul:$C:___fs2slong\
02855                       :$L:r0x1181:$L:_UnitConverter_STK00:$L:_UnitConverter_STK01:$L:_UnitConverter_STK02:$L:r0x1182\
02856 08F5 --              :$L:r0x1186:$L:r0x1185
02857                       ;--------------------------------------------------------
02858                       ;	;.line	379; ".\ADC_LCD.c"	long UnitConverter(long data)
02859 08F5                  _UnitConverter:	;Function start
02860 08F5 6600             	MVF	r0x1181,1,0
02861                       ;	;.line	382; ".\ADC_LCD.c"	BIEARL=0;                                //addr=0
02862 08F6 0C30             	CLRF	_BIEARL,0
02863                       ;	;.line	383; ".\ADC_LCD.c"	BIECN=BIECN | 0x01;              //BIE_DataH=0xAA,BIE_DataL=0x11
02864 08F7 902E             	BSF	_BIECN,0
02865 08F8                  _00346_DS_:
02866                       ;	;.line	384; ".\ADC_LCD.c"	while((BIECN& 0x01)==1); 
02867 08F8 642E             	MVF	_BIECN,0,0
02868 08F9 0101             	ANDL	0x01
02869 08FA 6600             	MVF	r0x1182,1,0
02870 08FB 3000             	DCF	r0x1182,0,0
02871 08FC A02B             	BTSZ	_STATUS,0
02872 08FD C200 F000        	JMP	_00346_DS_
02873                       ;	;.line	385; ".\ADC_LCD.c"	adS.eepromRead_UnitLow_bit=BIEDRL;
02874 08FF 6432             	MVF	_BIEDRL,0,0
02875 0900 6600             	MVF	(_adS + 12),1,0
02876 0901 6600             	MVF	r0x1182,1,0
02877                       ;	;.line	387; ".\ADC_LCD.c"	if(adS.eepromRead_UnitLow_bit==0){ /*psi*/
02878 0902 6E29             	TFSZ	_WREG,0
02879 0903 C200 F000        	JMP	_00359_DS_
02880                       ;	;.line	389; ".\ADC_LCD.c"	LCD_WriteData(&LCD4, seg_psi) ;
02881 0905 0604             	MVL	0x04
02882 0906 6663             	MVF	_LCD4,1,0
02883                       ;	;.line	390; ".\ADC_LCD.c"	return  kgfTOpsi(data) ;
02884 0907 6400             	MVF	_UnitConverter_STK02,0,0
02885 0908 6600             	MVF	___slong2fs_STK02,1,0
02886 0909 6400             	MVF	_UnitConverter_STK01,0,0
02887 090A 6600             	MVF	___slong2fs_STK01,1,0
02888 090B 6400             	MVF	_UnitConverter_STK00,0,0
02889 090C 6600             	MVF	___slong2fs_STK00,1,0
02890 090D 6400             	MVF	r0x1181,0,0
02891 090E C000 F000        	CALL	___slong2fs
02892                       	.CHKPARA ___slong2fs 4
02893 0910 6600             	MVF	r0x1186,1,0
02894 0911 641E             	MVF	STK02,0,0
02895 0912 6600             	MVF	___fsmul_STK06,1,0
02896 0913 641F             	MVF	STK01,0,0
02897 0914 6600             	MVF	___fsmul_STK05,1,0
02898 0915 6420             	MVF	STK00,0,0
02899 0916 6600             	MVF	___fsmul_STK04,1,0
02900 0917 6400             	MVF	r0x1186,0,0
02901 0918 6600             	MVF	___fsmul_STK03,1,0
02902 0919 06E1             	MVL	0xe1
02903 091A 6600             	MVF	___fsmul_STK02,1,0
02904 091B 067A             	MVL	0x7a
02905 091C 6600             	MVF	___fsmul_STK01,1,0
02906 091D 0614             	MVL	0x14
02907 091E 6600             	MVF	___fsmul_STK00,1,0
02908 091F 063E             	MVL	0x3e
02909 0920 C000 F000        	CALL	___fsmul
02910                       	.CHKPARA ___fsmul 8
02911 0922 6600             	MVF	r0x1186,1,0
02912 0923 641E             	MVF	STK02,0,0
02913 0924 6600             	MVF	___fs2slong_STK02,1,0
02914 0925 641F             	MVF	STK01,0,0
02915 0926 6600             	MVF	___fs2slong_STK01,1,0
02916 0927 6420             	MVF	STK00,0,0
02917 0928 6600             	MVF	___fs2slong_STK00,1,0
02918 0929 6400             	MVF	r0x1186,0,0
02919 092A C000 F000        	CALL	___fs2slong
02920 092C C200 F000        	JMP	_00361_DS_
02921 092E                  _00359_DS_:
02922                       ;	;.line	392; ".\ADC_LCD.c"	else if(adS.eepromRead_UnitLow_bit==1){ /*unit bar*/
02923 092E 3400             	DCSZ	r0x1182,0,0
02924 092F C200 F000        	JMP	_00356_DS_
02925                       ;	;.line	393; ".\ADC_LCD.c"	LCD_WriteData(&LCD4, seg_bar) ;
02926 0931 0602             	MVL	0x02
02927 0932 6663             	MVF	_LCD4,1,0
02928                       ;	;.line	394; ".\ADC_LCD.c"	return	kgfTObar(data);
02929 0933 6400             	MVF	_UnitConverter_STK02,0,0
02930 0934 6600             	MVF	___slong2fs_STK02,1,0
02931 0935 6400             	MVF	_UnitConverter_STK01,0,0
02932 0936 6600             	MVF	___slong2fs_STK01,1,0
02933 0937 6400             	MVF	_UnitConverter_STK00,0,0
02934 0938 6600             	MVF	___slong2fs_STK00,1,0
02935 0939 6400             	MVF	r0x1181,0,0
02936 093A C000 F000        	CALL	___slong2fs
02937                       	.CHKPARA ___slong2fs 4
02938 093C 6600             	MVF	r0x1186,1,0
02939 093D 641E             	MVF	STK02,0,0
02940 093E 6600             	MVF	___fsmul_STK06,1,0
02941 093F 641F             	MVF	STK01,0,0
02942 0940 6600             	MVF	___fsmul_STK05,1,0
02943 0941 6420             	MVF	STK00,0,0
02944 0942 6600             	MVF	___fsmul_STK04,1,0
02945 0943 6400             	MVF	r0x1186,0,0
02946 0944 6600             	MVF	___fsmul_STK03,1,0
02947 0945 060A             	MVL	0x0a
02948 0946 6600             	MVF	___fsmul_STK02,1,0
02949 0947 06D7             	MVL	0xd7
02950 0948 6600             	MVF	___fsmul_STK01,1,0
02951 0949 0623             	MVL	0x23
02952 094A 6600             	MVF	___fsmul_STK00,1,0
02953 094B 063C             	MVL	0x3c
02954 094C C000 F000        	CALL	___fsmul
02955                       	.CHKPARA ___fsmul 8
02956 094E 6600             	MVF	r0x1186,1,0
02957 094F 641E             	MVF	STK02,0,0
02958 0950 6600             	MVF	___fs2slong_STK02,1,0
02959 0951 641F             	MVF	STK01,0,0
02960 0952 6600             	MVF	___fs2slong_STK01,1,0
02961 0953 6420             	MVF	STK00,0,0
02962 0954 6600             	MVF	___fs2slong_STK00,1,0
02963 0955 6400             	MVF	r0x1186,0,0
02964 0956 C000 F000        	CALL	___fs2slong
02965 0958 C200 F000        	JMP	_00361_DS_
02966 095A                  _00356_DS_:
02967                       ;	;.line	396; ".\ADC_LCD.c"	else if(adS.eepromRead_UnitLow_bit==2){ /* unit kgf*/
02968 095A 6400             	MVF	r0x1182,0,0
02969 095B 0302             	XORL	0x02
02970 095C B02B             	BTSS	_STATUS,0
02971 095D C200 F000        	JMP	_00353_DS_
02972                       ;	;.line	398; ".\ADC_LCD.c"	LCD_WriteData(&LCD4, seg_kgf) ;
02973 095F 0601             	MVL	0x01
02974 0960 6663             	MVF	_LCD4,1,0
02975                       ;	;.line	399; ".\ADC_LCD.c"	return data;
02976 0961 6400             	MVF	_UnitConverter_STK02,0,0
02977 0962 661E             	MVF	STK02,1,0
02978 0963 6400             	MVF	_UnitConverter_STK01,0,0
02979 0964 661F             	MVF	STK01,1,0
02980 0965 6400             	MVF	_UnitConverter_STK00,0,0
02981 0966 6620             	MVF	STK00,1,0
02982 0967 6400             	MVF	r0x1181,0,0
02983 0968 C200 F000        	JMP	_00361_DS_
02984 096A                  _00353_DS_:
02985                       ;	;.line	401; ".\ADC_LCD.c"	else if(adS.eepromRead_UnitLow_bit==3){ /*uint mpa*/
02986 096A 6400             	MVF	r0x1182,0,0
02987 096B 0303             	XORL	0x03
02988 096C B02B             	BTSS	_STATUS,0
02989 096D C200 F000        	JMP	_00350_DS_
02990                       ;	;.line	403; ".\ADC_LCD.c"	LCD_WriteData(&LCD4, seg_mpa) ;
02991 096F 0608             	MVL	0x08
02992 0970 6663             	MVF	_LCD4,1,0
02993                       ;	;.line	404; ".\ADC_LCD.c"	return kgfTOmpa(data);
02994 0971 6400             	MVF	_UnitConverter_STK02,0,0
02995 0972 6600             	MVF	___slong2fs_STK02,1,0
02996 0973 6400             	MVF	_UnitConverter_STK01,0,0
02997 0974 6600             	MVF	___slong2fs_STK01,1,0
02998 0975 6400             	MVF	_UnitConverter_STK00,0,0
02999 0976 6600             	MVF	___slong2fs_STK00,1,0
03000 0977 6400             	MVF	r0x1181,0,0
03001 0978 C000 F000        	CALL	___slong2fs
03002                       	.CHKPARA ___slong2fs 4
03003 097A 6600             	MVF	r0x1185,1,0
03004 097B 641E             	MVF	STK02,0,0
03005 097C 6600             	MVF	___fsmul_STK06,1,0
03006 097D 641F             	MVF	STK01,0,0
03007 097E 6600             	MVF	___fsmul_STK05,1,0
03008 097F 6420             	MVF	STK00,0,0
03009 0980 6600             	MVF	___fsmul_STK04,1,0
03010 0981 6400             	MVF	r0x1185,0,0
03011 0982 6600             	MVF	___fsmul_STK03,1,0
03012 0983 06CD             	MVL	0xcd
03013 0984 6600             	MVF	___fsmul_STK02,1,0
03014 0985 06CC             	MVL	0xcc
03015 0986 6600             	MVF	___fsmul_STK01,1,0
03016 0987 6600             	MVF	___fsmul_STK00,1,0
03017 0988 063D             	MVL	0x3d
03018 0989 C000 F000        	CALL	___fsmul
03019                       	.CHKPARA ___fsmul 8
03020 098B 6600             	MVF	r0x1185,1,0
03021 098C 641E             	MVF	STK02,0,0
03022 098D 6600             	MVF	___fs2slong_STK02,1,0
03023 098E 641F             	MVF	STK01,0,0
03024 098F 6600             	MVF	___fs2slong_STK01,1,0
03025 0990 6420             	MVF	STK00,0,0
03026 0991 6600             	MVF	___fs2slong_STK00,1,0
03027 0992 6400             	MVF	r0x1185,0,0
03028 0993 C000 F000        	CALL	___fs2slong
03029 0995 C200 F000        	JMP	_00361_DS_
03030 0997                  _00350_DS_:
03031                       ;	;.line	407; ".\ADC_LCD.c"	LCD_WriteData(&LCD4, seg_kgf) ;
03032 0997 0601             	MVL	0x01
03033 0998 6663             	MVF	_LCD4,1,0
03034                       ;	;.line	408; ".\ADC_LCD.c"	return data;
03035 0999 6400             	MVF	_UnitConverter_STK02,0,0
03036 099A 661E             	MVF	STK02,1,0
03037 099B 6400             	MVF	_UnitConverter_STK01,0,0
03038 099C 661F             	MVF	STK01,1,0
03039 099D 6400             	MVF	_UnitConverter_STK00,0,0
03040 099E 6620             	MVF	STK00,1,0
03041 099F 6400             	MVF	r0x1181,0,0
03042 09A0                  _00361_DS_:
03043                       ;	;.line	411; ".\ADC_LCD.c"	}
03044 09A0 000A             	RET	
03045                       ; exit point of _UnitConverter
03046 09A1 --              	.ENDFUNC	_UnitConverter
03047                       ;--------------------------------------------------------
03048                       
03049                       	;--cdb--S:G$SetupUnitAndZeroPoint_Mode$0$0({2}DF,SV:S),C,0,0
03050                       	;--cdb--S:G$NegativePressureWorks_Mode$0$0({2}DF,SV:S),C,0,0
03051                       	;--cdb--S:G$PositivePressureWorks_Mode$0$0({2}DF,SV:S),C,0,0
03052                       	;--cdb--S:G$SetupUnit_Mode$0$0({2}DF,SV:S),C,0,0
03053                       	;--cdb--S:G$SetupZeroPoint_Mode$0$0({2}DF,SV:S),C,0,0
03054                       	;--cdb--S:G$LowVoltageDisplay$0$0({2}DF,SV:S),C,0,0
03055                       	;--cdb--S:G$LowVoltageDetect_2V4$0$0({2}DF,SC:U),C,0,0
03056                       	;--cdb--S:G$LowVoltageDetect_3V$0$0({2}DF,SC:U),C,0,0
03057                       	;--cdb--S:G$UnitConverter$0$0({2}DF,SL:SL),C,0,0
03058                       	;--cdb--S:G$ADC_Open$0$0({2}DF,SV:S),C,0,0
03059                       	;--cdb--S:G$ADC_GetData$0$0({2}DF,SL:SL),C,0,0
03060                       	;--cdb--S:G$ADC_SDRVEnable$0$0({2}DF,SV:S),C,0,0
03061                       	;--cdb--S:G$ADC_SDRVDisable$0$0({2}DF,SV:S),C,0,0
03062                       	;--cdb--S:G$ClearLCD$0$0({2}DF,SV:S),C,0,0
03063                       	;--cdb--S:G$DisplayHycon$0$0({2}DF,SV:S),C,0,0
03064                       	;--cdb--S:G$DisplayHex$0$0({2}DF,SV:S),C,0,0
03065                       	;--cdb--S:G$Display2Er$0$0({2}DF,SV:S),C,0,0
03066                       	;--cdb--S:G$DisplayUnit$0$0({2}DF,SV:S),C,0,0
03067                       	;--cdb--S:G$DisplayHHH$0$0({2}DF,SV:S),C,0,0
03068                       	;--cdb--S:G$DisplayLLL$0$0({2}DF,SV:S),C,0,0
03069                       	;--cdb--S:G$Delay$0$0({2}DF,SV:S),C,0,0
03070                       	;--cdb--S:G$GPIO_Iint$0$0({2}DF,SV:S),C,0,0
03071                       	;--cdb--S:G$Reverse_Data$0$0({2}DF,SL:SL),C,0,0
03072                       	;--cdb--S:G$DisplayBatteryCapacityFull$0$0({2}DF,SV:S),C,0,0
03073                       	;--cdb--S:G$DisplayBatteryCapacityHalf$0$0({2}DF,SV:S),C,0,0
03074                       	;--cdb--S:G$DispalyBatteryCapacityLow$0$0({2}DF,SV:S),C,0,0
03075                       	;--cdb--S:G$HY17P52WR3$0$0({2}DF,SC:U),C,0,0
03076                       	;--cdb--S:G$HY17P52WR3Delay$0$0({2}DF,SV:S),C,0,0
03077                       	;--cdb--S:G$PGAandADCAccuracyMode$0$0({2}DF,SV:S),C,0,0
03078                       	;--cdb--S:G$AccuracyModeADCOFF$0$0({2}DF,SV:S),C,0,0
03079                       	;--cdb--S:G$ADCAccuracyMode$0$0({2}DF,SV:S),C,0,0
03080                       	;--cdb--S:G$ShowADC$0$0({2}DF,SV:S),C,0,0
03081                       	;--cdb--S:G$DisplayNum$0$0({2}DF,SV:S),C,0,0
03082                       	;--cdb--S:G$GPIO_Init$0$0({2}DF,SV:S),C,0,0
03083                       	;--cdb--S:G$main$0$0({2}DF,SV:S),C,0,0
03084                       	;--cdb--S:G$__slong2fs$0$0({2}DF,SF:S),C,0,0
03085                       	;--cdb--S:G$__fsmul$0$0({2}DF,SF:S),C,0,0
03086                       	;--cdb--S:G$__fs2slong$0$0({2}DF,SL:SL),C,0,0
03087                       	;--cdb--S:G$__fssub$0$0({2}DF,SF:S),C,0,0
03088                       	;--cdb--S:G$__fsadd$0$0({2}DF,SF:S),C,0,0
03089                       	;--cdb--S:G$_mullong$0$0({2}DF,SL:SL),C,0,0
03090                       	;--cdb--S:G$ISR$0$0({2}DF,SV:S),C,0,0
03091                       	;--cdb--S:G$FSR0$0$0({2}DD,SC:U),E,0,0
03092                       	;--cdb--S:G$FSR1$0$0({2}DD,SC:U),E,0,0
03093                       	;--cdb--S:G$FSR2$0$0({2}DD,SC:U),E,0,0
03094                       	;--cdb--S:G$ADCR$0$0({4}SL:SL),E,0,0
03095                       	;--cdb--S:G$adS$0$0({22}ST_adc_works_:S),E,0,0
03096                       	;--cdb--S:G$Flag$0$0({1}SC:U),E,0,0
03097                       	;--cdb--S:G$ADC$0$0({4}SL:SL),E,0,0
03098                       	;--cdb--S:G$MCUSTATUSbits$0$0({1}ST_MCUSTATUS:S),E,0,0
03099                       	;--cdb--S:G$_SWTGTID$0$0({1}SC:U),I,0,0
03100                       	;--cdb--S:G$INDF0$0$0({1}SC:U),I,0,0
03101                       	;--cdb--S:G$POINC0$0$0({1}SC:U),I,0,0
03102                       	;--cdb--S:G$PODEC0$0$0({1}SC:U),I,0,0
03103                       	;--cdb--S:G$PRINC0$0$0({1}SC:U),I,0,0
03104                       	;--cdb--S:G$PLUSW0$0$0({1}SC:U),I,0,0
03105                       	;--cdb--S:G$INDF1$0$0({1}SC:U),I,0,0
03106                       	;--cdb--S:G$POINC1$0$0({1}SC:U),I,0,0
03107                       	;--cdb--S:G$PODEC1$0$0({1}SC:U),I,0,0
03108                       	;--cdb--S:G$PRINC1$0$0({1}SC:U),I,0,0
03109                       	;--cdb--S:G$PLUSW1$0$0({1}SC:U),I,0,0
03110                       	;--cdb--S:G$INDF2$0$0({1}SC:U),I,0,0
03111                       	;--cdb--S:G$POINC2$0$0({1}SC:U),I,0,0
03112                       	;--cdb--S:G$PODEC2$0$0({1}SC:U),I,0,0
03113                       	;--cdb--S:G$PRINC2$0$0({1}SC:U),I,0,0
03114                       	;--cdb--S:G$PLUSW2$0$0({1}SC:U),I,0,0
03115                       	;--cdb--S:G$FSR0H$0$0({1}SC:U),I,0,0
03116                       	;--cdb--S:G$FSR0L$0$0({1}SC:U),I,0,0
03117                       	;--cdb--S:G$FSR1H$0$0({1}SC:U),I,0,0
03118                       	;--cdb--S:G$FSR1L$0$0({1}SC:U),I,0,0
03119                       	;--cdb--S:G$FSR2H$0$0({1}SC:U),I,0,0
03120                       	;--cdb--S:G$FSR2L$0$0({1}SC:U),I,0,0
03121                       	;--cdb--S:G$TOSH$0$0({1}SC:U),I,0,0
03122                       	;--cdb--S:G$TOSL$0$0({1}SC:U),I,0,0
03123                       	;--cdb--S:G$SKCN$0$0({1}SC:U),I,0,0
03124                       	;--cdb--S:G$PCLATH$0$0({1}SC:U),I,0,0
03125                       	;--cdb--S:G$PCLATL$0$0({1}SC:U),I,0,0
03126                       	;--cdb--S:G$TBLPTRH$0$0({1}SC:U),I,0,0
03127                       	;--cdb--S:G$TBLPTRL$0$0({1}SC:U),I,0,0
03128                       	;--cdb--S:G$TBLDH$0$0({1}SC:U),I,0,0
03129                       	;--cdb--S:G$TBLDL$0$0({1}SC:U),I,0,0
03130                       	;--cdb--S:G$PRODH$0$0({1}SC:U),I,0,0
03131                       	;--cdb--S:G$PRODL$0$0({1}SC:U),I,0,0
03132                       	;--cdb--S:G$INTE0$0$0({1}SC:U),I,0,0
03133                       	;--cdb--S:G$INTE1$0$0({1}SC:U),I,0,0
03134                       	;--cdb--S:G$INTF0$0$0({1}SC:U),I,0,0
03135                       	;--cdb--S:G$INTF1$0$0({1}SC:U),I,0,0
03136                       	;--cdb--S:G$WREG$0$0({1}SC:U),I,0,0
03137                       	;--cdb--S:G$BSRCN$0$0({1}SC:U),I,0,0
03138                       	;--cdb--S:G$STATUS$0$0({1}SC:U),I,0,0
03139                       	;--cdb--S:G$MSTAT$0$0({1}SC:U),I,0,0
03140                       	;--cdb--S:G$PSTAT$0$0({1}SC:U),I,0,0
03141                       	;--cdb--S:G$BIECN$0$0({1}SC:U),I,0,0
03142                       	;--cdb--S:G$BIEARH$0$0({1}SC:U),I,0,0
03143                       	;--cdb--S:G$BIEARL$0$0({1}SC:U),I,0,0
03144                       	;--cdb--S:G$BIEDRH$0$0({1}SC:U),I,0,0
03145                       	;--cdb--S:G$BIEDRL$0$0({1}SC:U),I,0,0
03146                       	;--cdb--S:G$PWRCN$0$0({1}SC:U),I,0,0
03147                       	;--cdb--S:G$OSCCN0$0$0({1}SC:U),I,0,0
03148                       	;--cdb--S:G$OSCCN1$0$0({1}SC:U),I,0,0
03149                       	;--cdb--S:G$OSCCN2$0$0({1}SC:U),I,0,0
03150                       	;--cdb--S:G$CSFCN0$0$0({1}SC:U),I,0,0
03151                       	;--cdb--S:G$CSFCN1$0$0({1}SC:U),I,0,0
03152                       	;--cdb--S:G$WDTCN$0$0({1}SC:U),I,0,0
03153                       	;--cdb--S:G$AD1H$0$0({1}SC:U),I,0,0
03154                       	;--cdb--S:G$AD1M$0$0({1}SC:U),I,0,0
03155                       	;--cdb--S:G$AD1L$0$0({1}SC:U),I,0,0
03156                       	;--cdb--S:G$AD1CN0$0$0({1}SC:U),I,0,0
03157                       	;--cdb--S:G$AD1CN1$0$0({1}SC:U),I,0,0
03158                       	;--cdb--S:G$AD1CN2$0$0({1}SC:U),I,0,0
03159                       	;--cdb--S:G$AD1CN3$0$0({1}SC:U),I,0,0
03160                       	;--cdb--S:G$AD1CN4$0$0({1}SC:U),I,0,0
03161                       	;--cdb--S:G$AD1CN5$0$0({1}SC:U),I,0,0
03162                       	;--cdb--S:G$LVDCN$0$0({1}SC:U),I,0,0
03163                       	;--cdb--S:G$TMA1CN$0$0({1}SC:U),I,0,0
03164                       	;--cdb--S:G$TMA1R$0$0({1}SC:U),I,0,0
03165                       	;--cdb--S:G$TMA1C$0$0({1}SC:U),I,0,0
03166                       	;--cdb--S:G$PT1$0$0({1}SC:U),I,0,0
03167                       	;--cdb--S:G$TRISC1$0$0({1}SC:U),I,0,0
03168                       	;--cdb--S:G$PT1DA$0$0({1}SC:U),I,0,0
03169                       	;--cdb--S:G$PT1PU$0$0({1}SC:U),I,0,0
03170                       	;--cdb--S:G$PT1M1$0$0({1}SC:U),I,0,0
03171                       	;--cdb--S:G$PT2$0$0({1}SC:U),I,0,0
03172                       	;--cdb--S:G$TRISC2$0$0({1}SC:U),I,0,0
03173                       	;--cdb--S:G$PT2DA$0$0({1}SC:U),I,0,0
03174                       	;--cdb--S:G$PT2PU$0$0({1}SC:U),I,0,0
03175                       	;--cdb--S:G$PT8$0$0({1}SC:U),I,0,0
03176                       	;--cdb--S:G$TRISC8$0$0({1}SC:U),I,0,0
03177                       	;--cdb--S:G$PT8PU$0$0({1}SC:U),I,0,0
03178                       	;--cdb--S:G$UR0CN$0$0({1}SC:U),I,0,0
03179                       	;--cdb--S:G$UR0STA$0$0({1}SC:U),I,0,0
03180                       	;--cdb--S:G$BA0CN$0$0({1}SC:U),I,0,0
03181                       	;--cdb--S:G$BG0RH$0$0({1}SC:U),I,0,0
03182                       	;--cdb--S:G$BG0RL$0$0({1}SC:U),I,0,0
03183                       	;--cdb--S:G$TX0R$0$0({1}SC:U),I,0,0
03184                       	;--cdb--S:G$RC0REG$0$0({1}SC:U),I,0,0
03185                       	;--cdb--S:G$LCDCN1$0$0({1}SC:U),I,0,0
03186                       	;--cdb--S:G$LCDCN2$0$0({1}SC:U),I,0,0
03187                       	;--cdb--S:G$LCDCN3$0$0({1}SC:U),I,0,0
03188                       	;--cdb--S:G$LCDCN4$0$0({1}SC:U),I,0,0
03189                       	;--cdb--S:G$LCD0$0$0({1}SC:U),I,0,0
03190                       	;--cdb--S:G$LCD1$0$0({1}SC:U),I,0,0
03191                       	;--cdb--S:G$LCD2$0$0({1}SC:U),I,0,0
03192                       	;--cdb--S:G$LCD3$0$0({1}SC:U),I,0,0
03193                       	;--cdb--S:G$LCD4$0$0({1}SC:U),I,0,0
03194                       	;--cdb--S:G$LCD5$0$0({1}SC:U),I,0,0
03195                       	;--cdb--S:G$LCD6$0$0({1}SC:U),I,0,0
03196                       	;--cdb--S:G$Filter$0$0({1}SC:U),I,0,0
03197                       	;--cdb--S:G$ADCRH$0$0({1}SC:U),I,0,0
03198                       	;--cdb--S:G$ADCRM$0$0({1}SC:U),I,0,0
03199                       	;--cdb--S:G$ADCRL$0$0({1}SC:U),I,0,0
03200                       	;--cdb--S:LADC_LCD.main._main_LCDDisplay_65536_37$LCDDisplay$10000$37({4}SF:S),R,0,0,[r0x1140,r0x1141,r0x1142,r0x1143]
03201                       	;--cdb--S:LADC_LCD.main._main_delta_65536_37$delta$10000$37({4}SL:SL),R,0,0,[r0x1140,r0x1141,r0x1146,r0x1147]
03202                       	;--cdb--S:LADC_LCD.main._main_theta_65536_37$theta$10000$37({4}SL:SL),R,0,0,[r0x1144,r0x1145,r0x1146,r0x1147]
03203                       	;--cdb--S:LADC_LCD.main._main_n_65536_37$n$10000$37({4}SL:SL),R,0,0,[]
03204                       	;--cdb--S:LADC_LCD.UnitConverter._UnitConverter_data_65536_65$data$10000$65({4}SL:SL),R,0,0,[_UnitConverter_STK02,_UnitConverter_STK01,_UnitConverter_STK00,r0x1181]
03205                       	;--cdb--S:LADC_LCD.LowVoltageDetect_3V._LowVoltageDetect_3V_flag_65536_73$flag$10000$73({1}SC:U),R,0,0,[r0x118A]
03206                       	;--cdb--S:LADC_LCD.LowVoltageDetect_2V4._LowVoltageDetect_2V4_flag_65536_77$flag$10000$77({1}SC:U),R,0,0,[r0x118B]
03207                       	;--cdb--S:LADC_LCD.PositivePressureWorks_Mode._PositivePressureWorks_Mode_delta_65536_108$delta$10000$108({4}SL:SL),R,0,0,[r0x1197,r0x1198,r0x1199,r0x119A]
03208                       	;--cdb--S:LADC_LCD.PositivePressureWorks_Mode._PositivePressureWorks_Mode_LCDDisplay_65536_108$LCDDisplay$10000$108({4}SL:SL),R,0,0,[r0x1197,r0x1198,r0x1199,r0x119A]
03209                       	;--cdb--S:LADC_LCD.NegativePressureWorks_Mode._NegativePressureWorks_Mode_theta_65536_116$theta$10000$116({4}SL:SL),R,0,0,[r0x11B3,r0x11B4,r0x11B5,r0x11B6]
03210                       	;--cdb--S:LADC_LCD.NegativePressureWorks_Mode._NegativePressureWorks_Mode_omega_65536_116$omega$10000$116({4}SL:SL),R,0,0,[r0x11AF,r0x11B0,r0x11B1,r0x11B2]
03211                       	;--cdb--S:LADC_LCD.NegativePressureWorks_Mode._NegativePressureWorks_Mode_LCDDisplay_65536_116$LCDDisplay$10000$116({4}SL:SL),R,0,0,[r0x11AF,r0x11B0,r0x11B1,r0x11B2]
03212                       	;--cdb--S:G$UnitConverter$0$0({2}DF,SL:SL),C,0,0
03213                       	;--cdb--S:G$LowVoltageDetect_3V$0$0({2}DF,SC:U),C,0,0
03214                       	;--cdb--S:G$LowVoltageDetect_2V4$0$0({2}DF,SC:U),C,0,0
03215                       	;--cdb--S:G$LowVoltageDisplay$0$0({2}DF,SV:S),C,0,0
03216                       	;--cdb--S:G$SetupZeroPoint_Mode$0$0({2}DF,SV:S),C,0,0
03217                       	;--cdb--S:G$SetupUnit_Mode$0$0({2}DF,SV:S),C,0,0
03218                       	;--cdb--S:G$PositivePressureWorks_Mode$0$0({2}DF,SV:S),C,0,0
03219                       	;--cdb--S:G$NegativePressureWorks_Mode$0$0({2}DF,SV:S),C,0,0
03220                       	;--cdb--S:G$SetupUnitAndZeroPoint_Mode$0$0({2}DF,SV:S),C,0,0
03221                       	;--cdb--S:G$_STATUS$0$0({0}:U),Z,0,0
03222                       	;--cdb--S:G$_PCLATH$0$0({0}:U),Z,0,0
03223                       	;--cdb--S:G$_PCLATL$0$0({0}:U),Z,0,0
03224                       	;--cdb--S:G$_WREG$0$0({0}:U),Z,0,0
03225                       	;--cdb--S:G$_INTE0$0$0({0}:U),Z,0,0
03226                       ;--------------------------------------------------------
03227                       ; external declarations
03228                       ;--------------------------------------------------------
03229                       	.globl	_ADC_Open
03230                       	.globl	_ADC_GetData
03231                       	.globl	_Display2Er
03232                       	.globl	_DisplayUnit
03233                       	.globl	_Delay
03234                       	.globl	_GPIO_Iint
03235                       	.globl	_Reverse_Data
03236                       	.globl	_DisplayBatteryCapacityFull
03237                       	.globl	_DisplayBatteryCapacityHalf
03238                       	.globl	_DispalyBatteryCapacityLow
03239                       	.globl	_HY17P52WR3
03240                       	.globl	_PGAandADCAccuracyMode
03241                       	.globl	_DisplayNum
03242                       	.globl	___slong2fs
03243                       	.globl	___fsmul
03244                       	.globl	___fs2slong
03245                       	.globl	___fssub
03246                       	.globl	___fsadd
03247                       	.globl	__mullong
03248                       	.globl	_FSR0
03249                       	.globl	_FSR1
03250                       	.globl	_FSR2
03251                       	.globl	_ADCR
03252                       	.globl	_adS
03253                       	.globl	__sdcc_gsinit_startup256fsr2
03254                       ;--------------------------------------------------------
03255                       ; global -1 declarations
03256                       ;--------------------------------------------------------
03257                       	.globl	_LowVoltageDisplay
03258                       	.globl	_LowVoltageDetect_2V4
03259                       	.globl	_LowVoltageDetect_3V
03260                       	.globl	_UnitConverter
03261                       	.globl	_Flag
03262                       	.globl	_ADC
03263                       	.globl	_MCUSTATUSbits
03264                       
03265                       	.globl WSAVE
03266                       	.globl STK07
03267                       	.globl STK07_SAVE
03268                       	.globl STK06
03269                       	.globl STK06_SAVE
03270                       	.globl STK05
03271                       	.globl STK05_SAVE
03272                       	.globl STK04
03273                       	.globl STK04_SAVE
03274                       	.globl STK03
03275                       	.globl STK03_SAVE
03276                       	.globl STK02
03277                       	.globl STK02_SAVE
03278                       	.globl STK01
03279                       	.globl STK01_SAVE
03280                       	.globl STK00
03281                       	.globl STK00_SAVE
03282                       	.globl _FSR0L_SAVE
03283                       	.globl _FSR0H_SAVE
03284                       	.globl _FSR1L_SAVE
03285                       	.globl _FSR1H_SAVE
03286                       	.globl _FSR2L_SAVE
03287                       	.globl _FSR2H_SAVE
03288                       	.globl	_TBLPTRH_SAVE
03289                       
03290                       .area UDATA (DATA,REL,CON)
03291 0000 --               STK07:	.ds	 1
03292 0001 --               STK06:	.ds	 1
03293 0002 --               STK05:	.ds	 1
03294 0003 --               STK04:	.ds	 1
03295 0004 --               STK03:	.ds	 1
03296                       STK02:	.equ	 0x1E
03297                       STK01:	.equ	 0x1F
03298                       STK00:	.equ	 0x20
03299 0005 --               WSAVE:	.ds 1
03300 0006 --               STK07_SAVE:	.ds	 1
03301 0007 --               STK06_SAVE:	.ds	 1
03302 0008 --               STK05_SAVE:	.ds	 1
03303 0009 --               STK04_SAVE:	.ds	 1
03304 000A --               STK03_SAVE:	.ds	 1
03305 000B --               STK02_SAVE:	.ds	 1
03306 000C --               STK01_SAVE:	.ds	 1
03307 000D --               STK00_SAVE:	.ds	 1
03308 000E --               _FSR0L_SAVE:	.ds	 1
03309 000F --               _FSR0H_SAVE:	.ds	 1
03310 0010 --               _FSR1L_SAVE:	.ds	 1
03311 0011 --               _FSR1H_SAVE:	.ds	 1
03312 0012 --               _FSR2L_SAVE:	.ds	 1
03313 0013 --               _FSR2H_SAVE:	.ds	 1
03314 0014 --               _TBLPTRH_SAVE:	.ds	 1
03315                       
03316                       	.globl	_memcpy
03317                       ;--------------------------------------------------------
03318                       ; global -2 definitions
03319                       ;--------------------------------------------------------
03320                       	.area DSEG(DATA)
03321 0000 --               _Flag:	.ds	1
03322                       
03323                       	.area DSEG(DATA)
03324 0001 --               _ADC:	.ds	4
03325                       
03326                       	.area DSEG(DATA)
03327 0005 --               _MCUSTATUSbits:	.ds	1
03328                       
03329                       	.area DSEG(DATA)
03330                       __SWTGTID	.equ	0xA43354DA
03331                       
03332                       	.area DSEG(DATA)
03333                       _INDF0	.equ	0x0
03334                       
03335                       	.area DSEG(DATA)
03336                       _POINC0	.equ	0x1
03337                       
03338                       	.area DSEG(DATA)
03339                       _PODEC0	.equ	0x2
03340                       
03341                       	.area DSEG(DATA)
03342                       _PRINC0	.equ	0x3
03343                       
03344                       	.area DSEG(DATA)
03345                       _PLUSW0	.equ	0x4
03346                       
03347                       	.area DSEG(DATA)
03348                       _INDF1	.equ	0x5
03349                       
03350                       	.area DSEG(DATA)
03351                       _POINC1	.equ	0x6
03352                       
03353                       	.area DSEG(DATA)
03354                       _PODEC1	.equ	0x7
03355                       
03356                       	.area DSEG(DATA)
03357                       _PRINC1	.equ	0x8
03358                       
03359                       	.area DSEG(DATA)
03360                       _PLUSW1	.equ	0x9
03361                       
03362                       	.area DSEG(DATA)
03363                       _INDF2	.equ	0xA
03364                       
03365                       	.area DSEG(DATA)
03366                       _POINC2	.equ	0xB
03367                       
03368                       	.area DSEG(DATA)
03369                       _PODEC2	.equ	0xC
03370                       
03371                       	.area DSEG(DATA)
03372                       _PRINC2	.equ	0xD
03373                       
03374                       	.area DSEG(DATA)
03375                       _PLUSW2	.equ	0xE
03376                       
03377                       	.area DSEG(DATA)
03378                       _FSR0H	.equ	0xF
03379                       
03380                       	.area DSEG(DATA)
03381                       _FSR0L	.equ	0x10
03382                       
03383                       	.area DSEG(DATA)
03384                       _FSR1H	.equ	0x11
03385                       
03386                       	.area DSEG(DATA)
03387                       _FSR1L	.equ	0x12
03388                       
03389                       	.area DSEG(DATA)
03390                       _FSR2H	.equ	0x13
03391                       
03392                       	.area DSEG(DATA)
03393                       _FSR2L	.equ	0x14
03394                       
03395                       	.area DSEG(DATA)
03396                       _TOSH	.equ	0x16
03397                       
03398                       	.area DSEG(DATA)
03399                       _TOSL	.equ	0x17
03400                       
03401                       	.area DSEG(DATA)
03402                       _SKCN	.equ	0x18
03403                       
03404                       	.area DSEG(DATA)
03405                       _PCLATH	.equ	0x1A
03406                       
03407                       	.area DSEG(DATA)
03408                       _PCLATL	.equ	0x1B
03409                       
03410                       	.area DSEG(DATA)
03411                       _TBLPTRH	.equ	0x1D
03412                       
03413                       	.area DSEG(DATA)
03414                       _TBLPTRL	.equ	0x1E
03415                       
03416                       	.area DSEG(DATA)
03417                       _TBLDH	.equ	0x1F
03418                       
03419                       	.area DSEG(DATA)
03420                       _TBLDL	.equ	0x20
03421                       
03422                       	.area DSEG(DATA)
03423                       _PRODH	.equ	0x21
03424                       
03425                       	.area DSEG(DATA)
03426                       _PRODL	.equ	0x22
03427                       
03428                       	.area DSEG(DATA)
03429                       _INTE0	.equ	0x23
03430                       
03431                       	.area DSEG(DATA)
03432                       _INTE1	.equ	0x24
03433                       
03434                       	.area DSEG(DATA)
03435                       _INTF0	.equ	0x26
03436                       
03437                       	.area DSEG(DATA)
03438                       _INTF1	.equ	0x27
03439                       
03440                       	.area DSEG(DATA)
03441                       _WREG	.equ	0x29
03442                       
03443                       	.area DSEG(DATA)
03444                       _BSRCN	.equ	0x2A
03445                       
03446                       	.area DSEG(DATA)
03447                       _STATUS	.equ	0x2B
03448                       
03449                       	.area DSEG(DATA)
03450                       _MSTAT	.equ	0x2B
03451                       
03452                       	.area DSEG(DATA)
03453                       _PSTAT	.equ	0x2C
03454                       
03455                       	.area DSEG(DATA)
03456                       _BIECN	.equ	0x2E
03457                       
03458                       	.area DSEG(DATA)
03459                       _BIEARH	.equ	0x2F
03460                       
03461                       	.area DSEG(DATA)
03462                       _BIEARL	.equ	0x30
03463                       
03464                       	.area DSEG(DATA)
03465                       _BIEDRH	.equ	0x31
03466                       
03467                       	.area DSEG(DATA)
03468                       _BIEDRL	.equ	0x32
03469                       
03470                       	.area DSEG(DATA)
03471                       _PWRCN	.equ	0x33
03472                       
03473                       	.area DSEG(DATA)
03474                       _OSCCN0	.equ	0x34
03475                       
03476                       	.area DSEG(DATA)
03477                       _OSCCN1	.equ	0x35
03478                       
03479                       	.area DSEG(DATA)
03480                       _OSCCN2	.equ	0x36
03481                       
03482                       	.area DSEG(DATA)
03483                       _CSFCN0	.equ	0x37
03484                       
03485                       	.area DSEG(DATA)
03486                       _CSFCN1	.equ	0x38
03487                       
03488                       	.area DSEG(DATA)
03489                       _WDTCN	.equ	0x39
03490                       
03491                       	.area DSEG(DATA)
03492                       _AD1H	.equ	0x3A
03493                       
03494                       	.area DSEG(DATA)
03495                       _AD1M	.equ	0x3B
03496                       
03497                       	.area DSEG(DATA)
03498                       _AD1L	.equ	0x3C
03499                       
03500                       	.area DSEG(DATA)
03501                       _AD1CN0	.equ	0x3D
03502                       
03503                       	.area DSEG(DATA)
03504                       _AD1CN1	.equ	0x3E
03505                       
03506                       	.area DSEG(DATA)
03507                       _AD1CN2	.equ	0x3F
03508                       
03509                       	.area DSEG(DATA)
03510                       _AD1CN3	.equ	0x40
03511                       
03512                       	.area DSEG(DATA)
03513                       _AD1CN4	.equ	0x41
03514                       
03515                       	.area DSEG(DATA)
03516                       _AD1CN5	.equ	0x42
03517                       
03518                       	.area DSEG(DATA)
03519                       _LVDCN	.equ	0x43
03520                       
03521                       	.area DSEG(DATA)
03522                       _TMA1CN	.equ	0x44
03523                       
03524                       	.area DSEG(DATA)
03525                       _TMA1R	.equ	0x45
03526                       
03527                       	.area DSEG(DATA)
03528                       _TMA1C	.equ	0x46
03529                       
03530                       	.area DSEG(DATA)
03531                       _PT1	.equ	0x47
03532                       
03533                       	.area DSEG(DATA)
03534                       _TRISC1	.equ	0x48
03535                       
03536                       	.area DSEG(DATA)
03537                       _PT1DA	.equ	0x49
03538                       
03539                       	.area DSEG(DATA)
03540                       _PT1PU	.equ	0x4A
03541                       
03542                       	.area DSEG(DATA)
03543                       _PT1M1	.equ	0x4B
03544                       
03545                       	.area DSEG(DATA)
03546                       _PT2	.equ	0x4C
03547                       
03548                       	.area DSEG(DATA)
03549                       _TRISC2	.equ	0x4D
03550                       
03551                       	.area DSEG(DATA)
03552                       _PT2DA	.equ	0x4E
03553                       
03554                       	.area DSEG(DATA)
03555                       _PT2PU	.equ	0x4F
03556                       
03557                       	.area DSEG(DATA)
03558                       _PT8	.equ	0x50
03559                       
03560                       	.area DSEG(DATA)
03561                       _TRISC8	.equ	0x51
03562                       
03563                       	.area DSEG(DATA)
03564                       _PT8PU	.equ	0x53
03565                       
03566                       	.area DSEG(DATA)
03567                       _UR0CN	.equ	0x54
03568                       
03569                       	.area DSEG(DATA)
03570                       _UR0STA	.equ	0x55
03571                       
03572                       	.area DSEG(DATA)
03573                       _BA0CN	.equ	0x56
03574                       
03575                       	.area DSEG(DATA)
03576                       _BG0RH	.equ	0x57
03577                       
03578                       	.area DSEG(DATA)
03579                       _BG0RL	.equ	0x58
03580                       
03581                       	.area DSEG(DATA)
03582                       _TX0R	.equ	0x59
03583                       
03584                       	.area DSEG(DATA)
03585                       _RC0REG	.equ	0x5A
03586                       
03587                       	.area DSEG(DATA)
03588                       _LCDCN1	.equ	0x5B
03589                       
03590                       	.area DSEG(DATA)
03591                       _LCDCN2	.equ	0x5C
03592                       
03593                       	.area DSEG(DATA)
03594                       _LCDCN3	.equ	0x5D
03595                       
03596                       	.area DSEG(DATA)
03597                       _LCDCN4	.equ	0x5E
03598                       
03599                       	.area DSEG(DATA)
03600                       _LCD0	.equ	0x5F
03601                       
03602                       	.area DSEG(DATA)
03603                       _LCD1	.equ	0x60
03604                       
03605                       	.area DSEG(DATA)
03606                       _LCD2	.equ	0x61
03607                       
03608                       	.area DSEG(DATA)
03609                       _LCD3	.equ	0x62
03610                       
03611                       	.area DSEG(DATA)
03612                       _LCD4	.equ	0x63
03613                       
03614                       	.area DSEG(DATA)
03615                       _LCD5	.equ	0x64
03616                       
03617                       	.area DSEG(DATA)
03618                       _LCD6	.equ	0x65
03619                       
03620                       	.area DSEG(DATA)
03621                       _Filter	.equ	0x66
03622                       
03623                       	.area DSEG(DATA)
03624                       _ADCRH	.equ	0x3A
03625                       
03626                       	.area DSEG(DATA)
03627                       _ADCRM	.equ	0x3B
03628                       
03629                       	.area DSEG(DATA)
03630                       _ADCRL	.equ	0x3C
03631                       
03632                       ;--------------------------------------------------------
03633                       ; absolute symbol definitions
03634                       ;--------------------------------------------------------
03635                       ;--------------------------------------------------------
03636                       ; compiler-defined variables
03637                       ;--------------------------------------------------------
03638                       	.area IDATA (DATA,REL,CON); pre-def
03639                       	.area IDATAROM (CODE,REL,CON); pre-def
03640                       	.area UDATA (DATA,REL,CON); pre-def
03641                       	.area UDATA (DATA,REL,CON) ;UDL_ADC_LCD_0	udata
03642 0015 --               r0x1140:	.ds	1
03643 0016 --               r0x1141:	.ds	1
03644 0017 --               r0x1142:	.ds	1
03645 0018 --               r0x1143:	.ds	1
03646 0019 --               r0x1144:	.ds	1
03647 001A --               r0x1145:	.ds	1
03648 001B --               r0x1146:	.ds	1
03649 001C --               r0x1147:	.ds	1
03650 001D --               r0x1148:	.ds	1
03651 001E --               r0x1149:	.ds	1
03652 001F --               r0x114C:	.ds	1
03653 0020 --               r0x114D:	.ds	1
03654 0021 --               r0x1181:	.ds	1
03655 0022 --               r0x1182:	.ds	1
03656 0023 --               r0x1185:	.ds	1
03657 0024 --               r0x1186:	.ds	1
03658 0025 --               r0x118A:	.ds	1
03659 0026 --               r0x118B:	.ds	1
03660 0027 --               r0x118C:	.ds	1
03661 0028 --               r0x118D:	.ds	1
03662 0029 --               r0x118E:	.ds	1
03663 002A --               r0x118F:	.ds	1
03664 002B --               r0x1190:	.ds	1
03665 002C --               r0x1191:	.ds	1
03666 002D --               r0x1192:	.ds	1
03667 002E --               r0x1195:	.ds	1
03668 002F --               r0x1197:	.ds	1
03669 0030 --               r0x1198:	.ds	1
03670 0031 --               r0x1199:	.ds	1
03671 0032 --               r0x119A:	.ds	1
03672 0033 --               r0x119B:	.ds	1
03673 0034 --               r0x119C:	.ds	1
03674 0035 --               r0x119D:	.ds	1
03675 0036 --               r0x119E:	.ds	1
03676 0037 --               r0x119F:	.ds	1
03677 0038 --               r0x11A0:	.ds	1
03678 0039 --               r0x11A2:	.ds	1
03679 003A --               r0x11A3:	.ds	1
03680 003B --               r0x11A4:	.ds	1
03681 003C --               r0x11AF:	.ds	1
03682 003D --               r0x11B0:	.ds	1
03683 003E --               r0x11B1:	.ds	1
03684 003F --               r0x11B2:	.ds	1
03685 0040 --               r0x11B3:	.ds	1
03686 0041 --               r0x11B4:	.ds	1
03687 0042 --               r0x11B5:	.ds	1
03688 0043 --               r0x11B6:	.ds	1
03689 0044 --               r0x11B7:	.ds	1
03690 0045 --               r0x11B8:	.ds	1
03691 0046 --               r0x11B9:	.ds	1
03692 0047 --               r0x11BA:	.ds	1
03693 0048 --               r0x11BB:	.ds	1
03694 0049 --               r0x11BC:	.ds	1
03695 004A --               r0x11BE:	.ds	1
03696 004B --               r0x11BF:	.ds	1
03697 004C --               r0x11C0:	.ds	1
03698 004D --               r0x11C1:	.ds	1
03699 004E --               r0x11C3:	.ds	1
03700                       	.area LOCALSTK (STK); local stack var
03701                       	.globl _ADC_Open_STK10
03702                       	.globl _ADC_Open_STK09
03703                       	.globl _ADC_Open_STK08
03704                       	.globl _ADC_Open_STK07
03705                       	.globl _ADC_Open_STK06
03706                       	.globl _ADC_Open_STK05
03707                       	.globl _ADC_Open_STK04
03708                       	.globl _ADC_Open_STK03
03709                       	.globl _ADC_Open_STK02
03710                       	.globl _ADC_Open_STK01
03711                       	.globl _ADC_Open_STK00
03712                       	.globl ___slong2fs_STK02
03713                       	.globl ___slong2fs_STK01
03714                       	.globl ___slong2fs_STK00
03715                       	.globl ___fsmul_STK06
03716                       	.globl ___fsmul_STK05
03717                       	.globl ___fsmul_STK04
03718                       	.globl ___fsmul_STK03
03719                       	.globl ___fsmul_STK02
03720                       	.globl ___fsmul_STK01
03721                       	.globl ___fsmul_STK00
03722                       	.globl ___fs2slong_STK02
03723                       	.globl ___fs2slong_STK01
03724                       	.globl ___fs2slong_STK00
03725                       	.globl _Delay_STK00
03726                       	.globl ___fssub_STK06
03727                       	.globl ___fssub_STK05
03728                       	.globl ___fssub_STK04
03729                       	.globl ___fssub_STK03
03730                       	.globl ___fssub_STK02
03731                       	.globl ___fssub_STK01
03732                       	.globl ___fssub_STK00
03733                       	.globl _DisplayNum_STK02
03734                       	.globl _DisplayNum_STK01
03735                       	.globl _DisplayNum_STK00
03736                       	.globl ___fsadd_STK06
03737                       	.globl ___fsadd_STK05
03738                       	.globl ___fsadd_STK04
03739                       	.globl ___fsadd_STK03
03740                       	.globl ___fsadd_STK02
03741                       	.globl ___fsadd_STK01
03742                       	.globl ___fsadd_STK00
03743                       	.globl _HY17P52WR3_STK01
03744                       	.globl _HY17P52WR3_STK00
03745 0000 --               _UnitConverter_STK00:	.ds	1
03746                       	.globl _UnitConverter_STK00
03747 0001 --               _UnitConverter_STK01:	.ds	1
03748                       	.globl _UnitConverter_STK01
03749 0002 --               _UnitConverter_STK02:	.ds	1
03750                       	.globl _UnitConverter_STK02
03751                       	.globl __mullong_STK06
03752                       	.globl __mullong_STK05
03753                       	.globl __mullong_STK04
03754                       	.globl __mullong_STK03
03755                       	.globl __mullong_STK02
03756                       	.globl __mullong_STK01
03757                       	.globl __mullong_STK00
03758                       	.globl _Reverse_Data_STK02
03759                       	.globl _Reverse_Data_STK01
03760                       	.globl _Reverse_Data_STK00
03761                       ;--------------------------------------------------------
03762                       ; initialized data
03763                       ;--------------------------------------------------------
03764                       ;--------------------------------------------------------
03765                       ; initialized data - mirror
03766                       ;--------------------------------------------------------
03767                       	;Following is optimization info, 
03768                       	;xxcdbxxW:dst:src+offset:srclit:just-remove
03769                       	;--cdb--W:r0x11C2:NULL+0:-1:1
03770                       	;--cdb--W:r0x11C1:NULL+0:-1:1
03771                       	;--cdb--W:r0x11AF:NULL+0:-1:1
03772                       	;--cdb--W:r0x11B0:NULL+0:-1:1
03773                       	;--cdb--W:r0x11B1:NULL+0:-1:1
03774                       	;--cdb--W:r0x11B4:NULL+0:-1:1
03775                       	;--cdb--W:r0x11B3:NULL+0:-1:1
03776                       	;--cdb--W:r0x11B7:NULL+0:-1:1
03777                       	;--cdb--W:r0x11BB:NULL+0:-1:1
03778                       	;--cdb--W:r0x11AF:STK02+0:-1:0
03779                       	;--cdb--W:r0x11B0:STK01+0:-1:0
03780                       	;--cdb--W:r0x11B1:STK00+0:-1:0
03781                       	;--cdb--W:r0x11B4:NULL+0:0:0
03782                       	;--cdb--W:r0x11B7:r0x11B8+0:-1:0
03783                       	;--cdb--W:r0x11B9:NULL+0:0:0
03784                       	;--cdb--W:r0x11BD:NULL+0:0:0
03785                       	;--cdb--W:r0x11B9:NULL+0:-1:1
03786                       	;--cdb--W:r0x11BD:NULL+0:-1:1
03787                       	;--cdb--W:r0x1198:NULL+0:-1:1
03788                       	;--cdb--W:r0x1197:NULL+0:-1:1
03789                       	;--cdb--W:r0x119B:NULL+0:-1:1
03790                       	;--cdb--W:r0x119F:NULL+0:-1:1
03791                       	;--cdb--W:r0x1197:STK02+0:-1:0
03792                       	;--cdb--W:r0x1198:NULL+0:0:0
03793                       	;--cdb--W:r0x1198:STK01+0:-1:0
03794                       	;--cdb--W:r0x1199:STK00+0:-1:0
03795                       	;--cdb--W:r0x119B:r0x119C+0:-1:0
03796                       	;--cdb--W:r0x119D:NULL+0:0:0
03797                       	;--cdb--W:r0x11A0:STK01+0:-1:0
03798                       	;--cdb--W:r0x119F:STK02+0:-1:0
03799                       	;--cdb--W:r0x11A1:NULL+0:0:0
03800                       	;--cdb--W:r0x11A1:STK00+0:-1:0
03801                       	;--cdb--W:r0x119D:NULL+0:-1:1
03802                       	;--cdb--W:r0x11A1:NULL+0:-1:1
03803                       	;--cdb--W:r0x1195:NULL+0:-1:1
03804                       	;--cdb--W:r0x1196:NULL+0:-1:1
03805                       	;--cdb--W:r0x1196:NULL+0:0:0
03806                       	;--cdb--W:r0x118D:NULL+0:-1:1
03807                       	;--cdb--W:r0x118F:NULL+0:-1:1
03808                       	;--cdb--W:r0x1190:NULL+0:-1:1
03809                       	;--cdb--W:r0x1191:NULL+0:-1:1
03810                       	;--cdb--W:r0x1192:NULL+0:-1:1
03811                       	;--cdb--W:r0x118F:STK00+0:-1:0
03812                       	;--cdb--W:r0x118E:STK01+0:-1:0
03813                       	;--cdb--W:r0x1191:r0x118D+0:-1:0
03814                       	;--cdb--W:r0x1192:r0x118E+1:-1:0
03815                       	;--cdb--W:r0x1193:r0x118D+0:-1:0
03816                       	;--cdb--W:r0x1194:r0x118E+1:-1:0
03817                       	;--cdb--W:r0x118E:NULL+0:-1:1
03818                       	;--cdb--W:r0x118B:NULL+0:-1:1
03819                       	;--cdb--W:r0x118A:NULL+0:-1:1
03820                       	;--cdb--W:r0x1183:NULL+0:-1:1
03821                       	;--cdb--W:r0x1182:NULL+0:-1:1
03822                       	;--cdb--W:r0x1183:NULL+0:0:0
03823                       	;--cdb--W:r0x1183:STK01+0:-1:0
03824                       	;--cdb--W:r0x1185:STK00+0:-1:0
03825                       	;--cdb--W:r0x1184:STK01+0:-1:0
03826                       	;--cdb--W:r0x1184:STK00+0:-1:0
03827                       	;--cdb--W:r0x1186:NULL+0:-1:1
03828                       	;--cdb--W:r0x1185:NULL+0:-1:1
03829                       	;--cdb--W:r0x1140:NULL+0:-1:1
03830                       	;--cdb--W:r0x1141:NULL+0:-1:1
03831                       	;--cdb--W:r0x1142:NULL+0:-1:1
03832                       	;--cdb--W:r0x1143:NULL+0:-1:1
03833                       	;--cdb--W:r0x1144:NULL+0:-1:1
03834                       	;--cdb--W:r0x1145:NULL+0:-1:1
03835                       	;--cdb--W:r0x1140:STK02+0:-1:0
03836                       	;--cdb--W:r0x1141:STK01+0:-1:0
03837                       	;--cdb--W:r0x1141:NULL+0:0:0
03838                       	;--cdb--W:r0x1142:STK00+0:-1:0
03839                       	;--cdb--W:r0x1144:r0x1140+0:-1:0
03840                       	;--cdb--W:r0x1145:r0x1141+1:-1:0
03841                       	;--cdb--W:r0x1146:r0x1140+0:-1:0
03842                       	;--cdb--W:r0x1146:NULL+0:0:0
03843                       	;--cdb--W:r0x1147:r0x1141+1:-1:0
03844                       	;--cdb--W:r0x1147:NULL+0:0:0
03845                       	;--cdb--W:r0x1146:NULL+0:-1:1
03846                       	;--cdb--W:r0x1147:NULL+0:-1:1
03847                       	;--cdb--W:r0x11C3:NULL+0:-1:1
03848                       	;--cdb--W:r0x11C4:NULL+0:-1:1
03849                       	end
